(dp0
S'METTS MARK'
p1
(dp2
S'to_messages'
p3
I807
sS'deferral_payments'
p4
S'NaN'
p5
sS'log_deferred_income'
p6
I0
sS'expenses'
p7
I94299
sS'log_expenses'
p8
F4.974507087257109
sS'poi'
p9
I00
sS'deferred_income'
p10
g5
sS'email_address'
p11
S'mark.metts@enron.com'
p12
sS'long_term_incentive'
p13
g5
sS'log_total_payments'
p14
F6.026053764329612
sS'log_restricted_stock'
p15
F5.7672018914345164
sS'log_exercised_stock_options'
p16
I0
sS'restricted_stock_deferred'
p17
g5
sS'shared_receipt_with_poi'
p18
I702
sS'loan_advances'
p19
g5
sS'from_messages'
p20
I29
sS'other'
p21
I1740
sS'log_total_stock_value'
p22
F5.7672018914345164
sS'log_other'
p23
F3.2405492482825995
sS'log_long_term_incentive'
p24
I0
sS'director_fees'
p25
g5
sS'log_bonus'
p26
F5.778151250383643
sS'bonus'
p27
I600000
sS'log_deferral_payments'
p28
I0
sS'total_stock_value'
p29
I585062
sS'from_poi_to_this_person'
p30
I38
sS'ratio_to_poi'
p31
F0.034482758620689655
sS'from_this_person_to_poi'
p32
I1
sS'restricted_stock'
p33
I585062
sS'salary'
p34
I365788
sS'log_restricted_stock_deferred'
p35
I0
sS'log_director_fees'
p36
I0
sS'total_payments'
p37
I1061827
sS'log_loan_advances'
p38
I0
sS'exercised_stock_options'
p39
g5
sS'ratio_shared_receipt'
p40
F0.8698884758364313
sS'ratio_from_poi'
p41
F0.04708798017348203
sS'log_salary'
p42
F5.563229453958149
ssS'BAXTER JOHN C'
p43
(dp44
g3
g5
sg4
I1295738
sS'log_deferred_income'
p45
F6.141780463841865
sg7
I11200
sS'log_expenses'
p46
F4.049218022670181
sg9
I00
sg10
I-1386055
sg11
g5
sg13
I1586055
sS'log_total_payments'
p47
F6.750843281853342
sS'log_restricted_stock'
p48
F6.5957952749868225
sS'log_exercised_stock_options'
p49
F6.824811828729836
sg17
g5
sg18
g5
sg19
g5
sg20
g5
sg21
I2660303
sS'log_total_stock_value'
p50
F7.026257729027025
sS'log_other'
p51
F6.424931104200172
sS'log_long_term_incentive'
p52
F6.200318243373984
sg25
g5
sS'log_bonus'
p53
F6.079181246047624
sg27
I1200000
sS'log_deferral_payments'
p54
F6.112517195471888
sg29
I10623258
sg30
g5
sg31
F0.0
sg32
g5
sg33
I3942714
sg34
I267102
sS'log_restricted_stock_deferred'
p55
I0
sS'log_director_fees'
p56
I0
sg37
I5634343
sS'log_loan_advances'
p57
I0
sg39
I6680544
sg40
F0.0
sg41
F0.0
sS'log_salary'
p58
F5.426677139933434
ssS'ELLIOTT STEVEN'
p59
(dp60
g3
g5
sg4
g5
sS'log_deferred_income'
p61
F5.602850772640442
sg7
I78552
sS'log_expenses'
p62
F4.89515724701961
sg9
I00
sg10
I-400729
sg11
S'steven.elliott@enron.com'
p63
sg13
g5
sS'log_total_payments'
p64
F5.325772141538619
sS'log_restricted_stock'
p65
F6.252462475633383
sS'log_exercised_stock_options'
p66
F6.689339409644509
sg17
g5
sg18
g5
sg19
g5
sg20
g5
sg21
I12961
sS'log_total_stock_value'
p67
F6.824694211795185
sS'log_other'
p68
F4.112638510618492
sS'log_long_term_incentive'
p69
I0
sg25
g5
sS'log_bonus'
p70
F5.544068044350275
sg27
I350000
sS'log_deferral_payments'
p71
I0
sg29
I6678735
sg30
g5
sg31
F0.0
sg32
g5
sg33
I1788391
sg34
I170941
sS'log_restricted_stock_deferred'
p72
I0
sS'log_director_fees'
p73
I0
sg37
I211725
sS'log_loan_advances'
p74
I0
sg39
I4890344
sg40
F0.0
sg41
F0.0
sS'log_salary'
p75
F5.232846240240948
ssS'CORDES WILLIAM R'
p76
(dp77
g3
I764
sg4
g5
sS'log_deferred_income'
p78
I0
sg7
g5
sS'log_expenses'
p79
I0
sg9
I00
sg10
g5
sg11
S'bill.cordes@enron.com'
p80
sg13
g5
sS'log_total_payments'
p81
I0
sS'log_restricted_stock'
p82
F5.586964054814016
sS'log_exercised_stock_options'
p83
F5.814147669862268
sg17
g5
sg18
I58
sg19
g5
sg20
I12
sg21
g5
sS'log_total_stock_value'
p84
F6.016274749774684
sS'log_other'
p85
I0
sS'log_long_term_incentive'
p86
I0
sg25
g5
sS'log_bonus'
p87
I0
sg27
g5
sS'log_deferral_payments'
p88
I0
sg29
I1038185
sg30
I10
sg31
F0.0
sg32
I0
sg33
I386335
sg34
g5
sS'log_restricted_stock_deferred'
p89
I0
sS'log_director_fees'
p90
I0
sg37
g5
sS'log_loan_advances'
p91
I0
sg39
I651850
sg40
F0.07591623036649214
sg41
F0.013089005235602094
sS'log_salary'
p92
I0
ssS'HANNON KEVIN P'
p93
(dp94
g3
I1045
sg4
g5
sS'log_deferred_income'
p95
F6.49373833491427
sg7
I34039
sS'log_expenses'
p96
F4.5319767928678605
sg9
I01
sg10
I-3117011
sg11
S'kevin.hannon@enron.com'
p97
sg13
I1617011
sS'log_total_payments'
p98
F5.460419705445034
sS'log_restricted_stock'
p99
F5.930981614759761
sS'log_exercised_stock_options'
p100
F6.743353029830365
sg17
g5
sg18
I1035
sg19
g5
sg20
I32
sg21
I11350
sS'log_total_stock_value'
p101
F6.805573234540852
sS'log_other'
p102
F4.054995861529141
sS'log_long_term_incentive'
p103
F6.208712974280582
sg25
g5
sS'log_bonus'
p104
F6.176091259055681
sg27
I1500000
sS'log_deferral_payments'
p105
I0
sg29
I6391065
sg30
I32
sg31
F0.65625
sg32
I21
sg33
I853064
sg34
I243293
sS'log_restricted_stock_deferred'
p106
I0
sS'log_director_fees'
p107
I0
sg37
I288682
sS'log_loan_advances'
p108
I0
sg39
I5538001
sg40
F0.9904306220095693
sg41
F0.03062200956937799
sS'log_salary'
p109
F5.386129613636502
ssS'MORDAUNT KRISTINA M'
p110
(dp111
g3
g5
sg4
g5
sS'log_deferred_income'
p112
I0
sg7
I35018
sS'log_expenses'
p113
F4.544291338384566
sg9
I00
sg10
g5
sg11
S'kristina.mordaunt@enron.com'
p114
sg13
g5
sS'log_total_payments'
p115
F5.798320483790287
sS'log_restricted_stock'
p116
F5.319126888281838
sS'log_exercised_stock_options'
p117
I0
sg17
g5
sg18
g5
sg19
g5
sg20
g5
sg21
I1411
sS'log_total_stock_value'
p118
F5.319126888281838
sS'log_other'
p119
F3.149527013754348
sS'log_long_term_incentive'
p120
I0
sg25
g5
sS'log_bonus'
p121
F5.5118833609788735
sg27
I325000
sS'log_deferral_payments'
p122
I0
sg29
I208510
sg30
g5
sg31
F0.0
sg32
g5
sg33
I208510
sg34
I267093
sS'log_restricted_stock_deferred'
p123
I0
sS'log_director_fees'
p124
I0
sg37
I628522
sS'log_loan_advances'
p125
I0
sg39
g5
sg40
F0.0
sg41
F0.0
sS'log_salary'
p126
F5.426662506137395
ssS'MEYER ROCKFORD G'
p127
(dp128
g3
I232
sg4
I1848227
sS'log_deferred_income'
p129
I0
sg7
g5
sS'log_expenses'
p130
I0
sg9
I00
sg10
g5
sg11
S'rockford.meyer@enron.com'
p131
sg13
g5
sS'log_total_payments'
p132
F6.2667553103868086
sS'log_restricted_stock'
p133
F5.665002797661751
sS'log_exercised_stock_options'
p134
F5.693277476574969
sg17
g5
sg18
I22
sg19
g5
sg20
I28
sg21
g5
sS'log_total_stock_value'
p135
F5.980400194511359
sS'log_other'
p136
I0
sS'log_long_term_incentive'
p137
I0
sg25
g5
sS'log_bonus'
p138
I0
sg27
g5
sS'log_deferral_payments'
p139
F6.2667553103868086
sg29
I955873
sg30
I0
sg31
F0.0
sg32
I0
sg33
I462384
sg34
g5
sS'log_restricted_stock_deferred'
p140
I0
sS'log_director_fees'
p141
I0
sg37
I1848227
sS'log_loan_advances'
p142
I0
sg39
I493489
sg40
F0.09482758620689655
sg41
F0.0
sS'log_salary'
p143
I0
ssS'MCMAHON JEFFREY'
p144
(dp145
g3
I2355
sg4
g5
sS'log_deferred_income'
p146
I0
sg7
I137108
sS'log_expenses'
p147
F5.137062795814254
sg9
I00
sg10
g5
sg11
S'jeffrey.mcmahon@enron.com'
p148
sg13
I694862
sS'log_total_payments'
p149
F6.612759599106594
sS'log_restricted_stock'
p150
F5.747257174632718
sS'log_exercised_stock_options'
p151
F6.0429903155385505
sg17
g5
sg18
I2228
sg19
g5
sg20
I48
sg21
I297353
sS'log_total_stock_value'
p152
F6.220854380641414
sS'log_other'
p153
F5.473272324462581
sS'log_long_term_incentive'
p154
F5.841898562015383
sg25
g5
sS'log_bonus'
p155
F6.414973347970817
sg27
I2600000
sS'log_deferral_payments'
p156
I0
sg29
I1662855
sg30
I58
sg31
F0.5416666666666666
sg32
I26
sg33
I558801
sg34
I370448
sS'log_restricted_stock_deferred'
p157
I0
sS'log_director_fees'
p158
I0
sg37
I4099771
sS'log_loan_advances'
p159
I0
sg39
I1104054
sg40
F0.9460721868365181
sg41
F0.024628450106157114
sS'log_salary'
p160
F5.568727254426005
ssS'HORTON STANLEY C'
p161
(dp162
g3
I2350
sg4
I3131860
sS'log_deferred_income'
p163
I0
sg7
g5
sS'log_expenses'
p164
I0
sg9
I00
sg10
g5
sg11
S'stanley.horton@enron.com'
p165
sg13
g5
sS'log_total_payments'
p166
F6.495802340044139
sS'log_restricted_stock'
p167
F6.310922397998679
sS'log_exercised_stock_options'
p168
F6.7168851513354495
sg17
g5
sg18
I1074
sg19
g5
sg20
I1073
sg21
g5
sS'log_total_stock_value'
p169
F6.860736057163771
sS'log_other'
p170
I0
sS'log_long_term_incentive'
p171
I0
sg25
g5
sS'log_bonus'
p172
I0
sg27
g5
sS'log_deferral_payments'
p173
F6.495802340044139
sg29
I7256648
sg30
I44
sg31
F0.013979496738117428
sg32
I15
sg33
I2046079
sg34
g5
sS'log_restricted_stock_deferred'
p174
I0
sS'log_director_fees'
p175
I0
sg37
I3131860
sS'log_loan_advances'
p176
I0
sg39
I5210569
sg40
F0.4570212765957447
sg41
F0.01872340425531915
sS'log_salary'
p177
I0
ssS'PIPER GREGORY F'
p178
(dp179
g3
I1238
sg4
I1130036
sS'log_deferred_income'
p180
F4.522874402313803
sg7
I43057
sS'log_expenses'
p181
F4.634043767038004
sg9
I00
sg10
I-33333
sg11
S'greg.piper@enron.com'
p182
sg13
g5
sS'log_total_payments'
p183
F6.239957056087204
sS'log_restricted_stock'
p184
F5.61231117192276
sS'log_exercised_stock_options'
p185
F5.944625768345557
sg17
I-409554
sg18
I742
sg19
g5
sg20
I222
sg21
I778
sS'log_total_stock_value'
p186
F5.944625768345557
sS'log_other'
p187
F2.8909795969896885
sS'log_long_term_incentive'
p188
I0
sg25
g5
sS'log_bonus'
p189
F5.602059991327962
sg27
I400000
sS'log_deferral_payments'
p190
F6.053092279193426
sg29
I880290
sg30
I61
sg31
F0.21621621621621623
sg32
I48
sg33
I409554
sg34
I197091
sS'log_restricted_stock_deferred'
p191
F5.61231117192276
sS'log_director_fees'
p192
I0
sg37
I1737629
sS'log_loan_advances'
p193
I0
sg39
I880290
sg40
F0.5993537964458805
sg41
F0.049273021001615507
sS'log_salary'
p194
F5.29466679302841
ssS'HUMPHREY GENE E'
p195
(dp196
g3
I128
sg4
I2964506
sS'log_deferred_income'
p197
I0
sg7
I4994
sS'log_expenses'
p198
F3.6984485380153282
sg9
I00
sg10
g5
sg11
S'gene.humphrey@enron.com'
p199
sg13
g5
sS'log_total_payments'
p200
F6.491393073979244
sS'log_restricted_stock'
p201
I0
sS'log_exercised_stock_options'
p202
F6.35846177594945
sg17
g5
sg18
I119
sg19
g5
sg20
I17
sg21
g5
sS'log_total_stock_value'
p203
F6.35846177594945
sS'log_other'
p204
I0
sS'log_long_term_incentive'
p205
I0
sg25
g5
sS'log_bonus'
p206
I0
sg27
g5
sS'log_deferral_payments'
p207
F6.471952333670442
sg29
I2282768
sg30
I10
sg31
F1.0
sg32
I17
sg33
g5
sg34
I130724
sS'log_restricted_stock_deferred'
p208
I0
sS'log_director_fees'
p209
I0
sg37
I3100224
sS'log_loan_advances'
p210
I0
sg39
I2282768
sg40
F0.9296875
sg41
F0.078125
sS'log_salary'
p211
F5.116355328289851
ssS'UMANOFF ADAM S'
p212
(dp213
g3
I111
sg4
g5
sS'log_deferred_income'
p214
I0
sg7
I53122
sS'log_expenses'
p215
F4.725274417501014
sg9
I00
sg10
g5
sg11
S'adam.umanoff@enron.com'
p216
sg13
g5
sS'log_total_payments'
p217
F6.05325558412768
sS'log_restricted_stock'
p218
I0
sS'log_exercised_stock_options'
p219
I0
sg17
g5
sg18
I41
sg19
g5
sg20
I18
sg21
g5
sS'log_total_stock_value'
p220
I0
sS'log_other'
p221
I0
sS'log_long_term_incentive'
p222
I0
sg25
g5
sS'log_bonus'
p223
F5.89693937225219
sg27
I788750
sS'log_deferral_payments'
p224
I0
sg29
g5
sg30
I12
sg31
F0.0
sg32
I0
sg33
g5
sg34
I288589
sS'log_restricted_stock_deferred'
p225
I0
sS'log_director_fees'
p226
I0
sg37
I1130461
sS'log_loan_advances'
p227
I0
sg39
g5
sg40
F0.36936936936936937
sg41
F0.10810810810810811
sS'log_salary'
p228
F5.460279773291274
ssS'BLACHMAN JEREMY M'
p229
(dp230
g3
I2475
sg4
g5
sS'log_deferred_income'
p231
I0
sg7
I84208
sS'log_expenses'
p232
F4.925353352673201
sg9
I00
sg10
g5
sg11
S'jeremy.blachman@enron.com'
p233
sg13
I831809
sS'log_total_payments'
p234
F6.304239486445571
sS'log_restricted_stock'
p235
F5.276556005986421
sS'log_exercised_stock_options'
p236
F5.883839090541412
sg17
g5
sg18
I2326
sg19
g5
sg20
I14
sg21
I272
sS'log_total_stock_value'
p237
F5.979709498110294
sS'log_other'
p238
F2.4345689040341987
sS'log_long_term_incentive'
p239
F5.920023615030106
sg25
g5
sS'log_bonus'
p240
F5.929418925714292
sg27
I850000
sS'log_deferral_payments'
p241
I0
sg29
I954354
sg30
I25
sg31
F0.14285714285714285
sg32
I2
sg33
I189041
sg34
I248546
sS'log_restricted_stock_deferred'
p242
I0
sS'log_director_fees'
p243
I0
sg37
I2014835
sS'log_loan_advances'
p244
I0
sg39
I765313
sg40
F0.9397979797979797
sg41
F0.010101010101010102
sS'log_salary'
p245
F5.39540677816942
ssS'SUNDE MARTIN'
p246
(dp247
g3
I2647
sg4
g5
sS'log_deferred_income'
p248
I0
sg7
g5
sS'log_expenses'
p249
I0
sg9
I00
sg10
g5
sg11
S'marty.sunde@enron.com'
p250
sg13
I476451
sS'log_total_payments'
p251
F6.188945068152566
sS'log_restricted_stock'
p252
F5.8444274682394
sS'log_exercised_stock_options'
p253
I0
sg17
g5
sg18
I2565
sg19
g5
sg20
I38
sg21
I111122
sS'log_total_stock_value'
p254
F5.8444274682394
sS'log_other'
p255
F5.045800049334556
sS'log_long_term_incentive'
p256
F5.678018242804659
sg25
g5
sS'log_bonus'
p257
F5.845098040014256
sg27
I700000
sS'log_deferral_payments'
p258
I0
sg29
I698920
sg30
I37
sg31
F0.34210526315789475
sg32
I13
sg33
I698920
sg34
I257486
sS'log_restricted_stock_deferred'
p259
I0
sS'log_director_fees'
p260
I0
sg37
I1545059
sS'log_loan_advances'
p261
I0
sg39
g5
sg40
F0.9690215338118625
sg41
F0.013978088401964487
sS'log_salary'
p262
F5.410753620608132
ssS'GIBBS DANA R'
p263
(dp264
g3
I169
sg4
I504610
sS'log_deferred_income'
p265
I0
sg7
g5
sS'log_expenses'
p266
I0
sg9
I00
sg10
g5
sg11
S'dana.gibbs@enron.com'
p267
sg13
I461912
sS'log_total_payments'
p268
F5.985211743899865
sS'log_restricted_stock'
p269
I0
sS'log_exercised_stock_options'
p270
F6.346015384725348
sg17
g5
sg18
I23
sg19
g5
sg20
I12
sg21
g5
sS'log_total_stock_value'
p271
F6.346015384725348
sS'log_other'
p272
I0
sS'log_long_term_incentive'
p273
F5.664559244918308
sg25
g5
sS'log_bonus'
p274
I0
sg27
g5
sS'log_deferral_payments'
p275
F5.702955852804199
sg29
I2218275
sg30
I0
sg31
F0.0
sg32
I0
sg33
g5
sg34
g5
sS'log_restricted_stock_deferred'
p276
I0
sS'log_director_fees'
p277
I0
sg37
I966522
sS'log_loan_advances'
p278
I0
sg39
I2218275
sg40
F0.13609467455621302
sg41
F0.0
sS'log_salary'
p279
I0
ssS'LOWRY CHARLES P'
p280
(dp281
g3
g5
sg4
g5
sS'log_deferred_income'
p282
I0
sg7
g5
sS'log_expenses'
p283
I0
sg9
I00
sg10
g5
sg11
g5
sg13
g5
sS'log_total_payments'
p284
I0
sS'log_restricted_stock'
p285
F5.186634307319705
sS'log_exercised_stock_options'
p286
F5.570782202910342
sg17
I-153686
sg18
g5
sg19
g5
sg20
g5
sg21
g5
sS'log_total_stock_value'
p287
F5.570782202910342
sS'log_other'
p288
I0
sS'log_long_term_incentive'
p289
I0
sg25
g5
sS'log_bonus'
p290
I0
sg27
g5
sS'log_deferral_payments'
p291
I0
sg29
I372205
sg30
g5
sg31
F0.0
sg32
g5
sg33
I153686
sg34
g5
sS'log_restricted_stock_deferred'
p292
F5.186634307319705
sS'log_director_fees'
p293
I0
sg37
g5
sS'log_loan_advances'
p294
I0
sg39
I372205
sg40
F0.0
sg41
F0.0
sS'log_salary'
p295
I0
ssS'COLWELL WESLEY'
p296
(dp297
g3
I1758
sg4
I27610
sS'log_deferred_income'
p298
F5.158549439754391
sg7
I16514
sS'log_expenses'
p299
F4.217852280259893
sg9
I01
sg10
I-144062
sg11
S'wes.colwell@enron.com'
p300
sg13
g5
sS'log_total_payments'
p301
F6.173286523485136
sS'log_restricted_stock'
p302
F5.844005968539517
sS'log_exercised_stock_options'
p303
I0
sg17
g5
sg18
I1132
sg19
g5
sg20
I40
sg21
I101740
sS'log_total_stock_value'
p304
F5.844005968539517
sS'log_other'
p305
F5.0074917332953355
sS'log_long_term_incentive'
p306
I0
sg25
g5
sS'log_bonus'
p307
F6.079181246047624
sg27
I1200000
sS'log_deferral_payments'
p308
F4.441066406639263
sg29
I698242
sg30
I240
sg31
F0.275
sg32
I11
sg33
I698242
sg34
I288542
sS'log_restricted_stock_deferred'
p309
I0
sS'log_director_fees'
p310
I0
sg37
I1490344
sS'log_loan_advances'
p311
I0
sg39
g5
sg40
F0.6439135381114903
sg41
F0.13651877133105803
sS'log_salary'
p312
F5.460209037736627
ssS'MULLER MARK S'
p313
(dp314
g3
I136
sg4
I842924
sS'log_deferred_income'
p315
F5.856728890382882
sg7
g5
sS'log_expenses'
p316
I0
sg9
I00
sg10
I-719000
sg11
S's..muller@enron.com'
p317
sg13
I1725545
sS'log_total_payments'
p318
F6.5054308217373835
sS'log_restricted_stock'
p319
F5.556938999355794
sS'log_exercised_stock_options'
p320
F6.023795502650216
sg17
g5
sg18
I114
sg19
g5
sg20
I16
sg21
I947
sS'log_total_stock_value'
p321
F6.151323261466896
sS'log_other'
p322
F2.976349979003273
sS'log_long_term_incentive'
p323
F6.236926289618146
sg25
g5
sS'log_bonus'
p324
F6.0413926851582245
sg27
I1100000
sS'log_deferral_payments'
p325
F5.925788419383287
sg29
I1416848
sg30
I12
sg31
F0.0
sg32
I0
sg33
I360528
sg34
I251654
sS'log_restricted_stock_deferred'
p326
I0
sS'log_director_fees'
p327
I0
sg37
I3202070
sS'log_loan_advances'
p328
I0
sg39
I1056320
sg40
F0.8382352941176471
sg41
F0.08823529411764706
sS'log_salary'
p329
F5.40080383782921
ssS'JACKSON CHARLENE R'
p330
(dp331
g3
I258
sg4
g5
sS'log_deferred_income'
p332
I0
sg7
I10181
sS'log_expenses'
p333
F4.007790437445978
sg9
I00
sg10
g5
sg11
S'charlene.jackson@enron.com'
p334
sg13
g5
sS'log_total_payments'
p335
F5.741288722827634
sS'log_restricted_stock'
p336
F5.732933879173624
sS'log_exercised_stock_options'
p337
F5.267319598104249
sg17
g5
sg18
I117
sg19
g5
sg20
I56
sg21
I2435
sS'log_total_stock_value'
p338
F5.860778068293514
sS'log_other'
p339
F3.3864989655506528
sS'log_long_term_incentive'
p340
I0
sg25
g5
sS'log_bonus'
p341
F5.397940008672037
sg27
I250000
sS'log_deferral_payments'
p342
I0
sg29
I725735
sg30
I25
sg31
F0.3392857142857143
sg32
I19
sg33
I540672
sg34
I288558
sS'log_restricted_stock_deferred'
p343
I0
sS'log_director_fees'
p344
I0
sg37
I551174
sS'log_loan_advances'
p345
I0
sg39
I185063
sg40
F0.45348837209302323
sg41
F0.09689922480620156
sS'log_salary'
p346
F5.460233119218907
ssS'WESTFAHL RICHARD K'
p347
(dp348
g3
g5
sg4
g5
sS'log_deferred_income'
p349
F4.033423755486949
sg7
I51870
sS'log_expenses'
p350
F4.714916247993584
sg9
I00
sg10
I-10800
sg11
S'dick.westfahl@enron.com'
p351
sg13
I256191
sS'log_total_payments'
p352
F5.882031906460453
sS'log_restricted_stock'
p353
F5.585381759696135
sS'log_exercised_stock_options'
p354
I0
sg17
g5
sg18
g5
sg19
g5
sg20
g5
sg21
I401130
sS'log_total_stock_value'
p355
F5.585381759696135
sS'log_other'
p356
F5.6032851435255004
sS'log_long_term_incentive'
p357
F5.408563868894257
sg25
g5
sS'log_bonus'
p358
I0
sg27
g5
sS'log_deferral_payments'
p359
I0
sg29
I384930
sg30
g5
sg31
F0.0
sg32
g5
sg33
I384930
sg34
I63744
sS'log_restricted_stock_deferred'
p360
I0
sS'log_director_fees'
p361
I0
sg37
I762135
sS'log_loan_advances'
p362
I0
sg39
g5
sg40
F0.0
sg41
F0.0
sS'log_salary'
p363
F4.8044393124075855
ssS'WALTERS GARETH W'
p364
(dp365
g3
g5
sg4
I53625
sS'log_deferred_income'
p366
I0
sg7
I33785
sS'log_expenses'
p367
F4.528723923260993
sg9
I00
sg10
g5
sg11
g5
sg13
g5
sS'log_total_payments'
p368
F4.94156112023607
sS'log_restricted_stock'
p369
I0
sS'log_exercised_stock_options'
p370
F6.012975923802026
sg17
g5
sg18
g5
sg19
g5
sg20
g5
sg21
g5
sS'log_total_stock_value'
p371
F6.012975923802026
sS'log_other'
p372
I0
sS'log_long_term_incentive'
p373
I0
sg25
g5
sS'log_bonus'
p374
I0
sg27
g5
sS'log_deferral_payments'
p375
F4.72936730519278
sg29
I1030329
sg30
g5
sg31
F0.0
sg32
g5
sg33
g5
sg34
g5
sS'log_restricted_stock_deferred'
p376
I0
sS'log_director_fees'
p377
I0
sg37
I87410
sS'log_loan_advances'
p378
I0
sg39
I1030329
sg40
F0.0
sg41
F0.0
sS'log_salary'
p379
I0
ssS'WALLS JR ROBERT H'
p380
(dp381
g3
I671
sg4
g5
sS'log_deferred_income'
p382
I0
sg7
I50936
sS'log_expenses'
p383
F4.707024836855785
sg9
I00
sg10
g5
sg11
S'rob.walls@enron.com'
p384
sg13
I540751
sS'log_total_payments'
p385
F6.254978050155674
sS'log_restricted_stock'
p386
F6.191018460926152
sS'log_exercised_stock_options'
p387
F6.638144080340003
sg17
g5
sg18
I215
sg19
g5
sg20
I146
sg21
I2
sS'log_total_stock_value'
p388
F6.7707781753039535
sS'log_other'
p389
F0.30102999566398114
sS'log_long_term_incentive'
p390
F5.732997331243963
sg25
g5
sS'log_bonus'
p391
F5.929418925714292
sg27
I850000
sS'log_deferral_payments'
p392
I0
sg29
I5898997
sg30
I17
sg31
F0.0
sg32
I0
sg33
I1552453
sg34
I357091
sS'log_restricted_stock_deferred'
p393
I0
sS'log_director_fees'
p394
I0
sg37
I1798780
sS'log_loan_advances'
p395
I0
sg39
I4346544
sg40
F0.3204172876304024
sg41
F0.02533532041728763
sS'log_salary'
p396
F5.552778904520441
ssS'KITCHEN LOUISE'
p397
(dp398
g3
I8305
sg4
g5
sS'log_deferred_income'
p399
I0
sg7
I5774
sS'log_expenses'
p400
F3.7614767795447017
sg9
I00
sg10
g5
sg11
S'louise.kitchen@enron.com'
p401
sg13
g5
sS'log_total_payments'
p402
F6.54047225535341
sS'log_restricted_stock'
p403
F5.668480034694044
sS'log_exercised_stock_options'
p404
F4.908710150247657
sg17
g5
sg18
I3669
sg19
g5
sg20
I1728
sg21
I93925
sS'log_total_stock_value'
p405
F5.738100847347166
sS'log_other'
p406
F4.972781203735422
sS'log_long_term_incentive'
p407
I0
sg25
g5
sS'log_bonus'
p408
F6.491361693834272
sg27
I3100000
sS'log_deferral_payments'
p409
I0
sg29
I547143
sg30
I251
sg31
F0.11226851851851852
sg32
I194
sg33
I466101
sg34
I271442
sS'log_restricted_stock_deferred'
p410
I0
sS'log_director_fees'
p411
I0
sg37
I3471141
sS'log_loan_advances'
p412
I0
sg39
I81042
sg40
F0.441782059000602
sg41
F0.030222757375075255
sS'log_salary'
p413
F5.433677046555142
ssS'CHAN RONNIE'
p414
(dp415
g3
g5
sg4
g5
sS'log_deferred_income'
p416
F4.9946866078020005
sg7
g5
sS'log_expenses'
p417
I0
sg9
I00
sg10
I-98784
sg11
g5
sg13
g5
sS'log_total_payments'
p418
I0
sS'log_restricted_stock'
p419
F4.511348515490212
sS'log_exercised_stock_options'
p420
I0
sg17
I-32460
sg18
g5
sg19
g5
sg20
g5
sg21
g5
sS'log_total_stock_value'
p421
I0
sS'log_other'
p422
I0
sS'log_long_term_incentive'
p423
I0
sg25
I98784
sS'log_bonus'
p424
I0
sg27
g5
sS'log_deferral_payments'
p425
I0
sg29
g5
sg30
g5
sg31
F0.0
sg32
g5
sg33
I32460
sg34
g5
sS'log_restricted_stock_deferred'
p426
F4.511348515490212
sS'log_director_fees'
p427
F4.9946866078020005
sg37
g5
sS'log_loan_advances'
p428
I0
sg39
g5
sg40
F0.0
sg41
F0.0
sS'log_salary'
p429
I0
ssS'BELFER ROBERT'
p430
(dp431
g3
g5
sg4
I-102500
sS'log_deferred_income'
p432
I0
sg7
g5
sS'log_expenses'
p433
I0
sg9
I00
sg10
g5
sg11
g5
sg13
g5
sS'log_total_payments'
p434
F5.010723865391773
sS'log_restricted_stock'
p435
I0
sS'log_exercised_stock_options'
p436
F3.516535373895799
sg17
I44093
sg18
g5
sg19
g5
sg20
g5
sg21
g5
sS'log_total_stock_value'
p437
F4.644369648364129
sS'log_other'
p438
I0
sS'log_long_term_incentive'
p439
I0
sg25
I3285
sS'log_bonus'
p440
I0
sg27
g5
sS'log_deferral_payments'
p441
F5.010723865391773
sg29
I-44093
sg30
g5
sg31
F0.0
sg32
g5
sg33
g5
sg34
g5
sS'log_restricted_stock_deferred'
p442
F4.644369648364129
sS'log_director_fees'
p443
F3.516535373895799
sg37
I102500
sS'log_loan_advances'
p444
I0
sg39
I3285
sg40
F0.0
sg41
F0.0
sS'log_salary'
p445
I0
ssS'SHANKMAN JEFFREY A'
p446
(dp447
g3
I3221
sg4
g5
sS'log_deferred_income'
p448
I0
sg7
I178979
sS'log_expenses'
p449
F5.252802077241655
sg9
I00
sg10
g5
sg11
S'jeffrey.shankman@enron.com'
p450
sg13
I554422
sS'log_total_payments'
p451
F6.482688111695151
sS'log_restricted_stock'
p452
F5.799434981002301
sS'log_exercised_stock_options'
p453
F6.158934539437542
sg17
g5
sg18
I1730
sg19
g5
sg20
I2681
sg21
I1191
sS'log_total_stock_value'
p454
F6.316397087066673
sS'log_other'
p455
F3.075911761482777
sS'log_long_term_incentive'
p456
F5.7438404551698286
sg25
g5
sS'log_bonus'
p457
F6.30102999566398
sg27
I2000000
sS'log_deferral_payments'
p458
I0
sg29
I2072035
sg30
I94
sg31
F0.030958597538232
sg32
I83
sg33
I630137
sg34
I304110
sS'log_restricted_stock_deferred'
p459
I0
sS'log_director_fees'
p460
I0
sg37
I3038702
sS'log_loan_advances'
p461
I0
sg39
I1441898
sg40
F0.5371002794163303
sg41
F0.029183483390251473
sS'log_salary'
p462
F5.483030701214221
ssS'WODRASKA JOHN'
p463
(dp464
g3
g5
sg4
g5
sS'log_deferred_income'
p465
I0
sg7
g5
sS'log_expenses'
p466
I0
sg9
I00
sg10
g5
sg11
S'john.wodraska@enron.com'
p467
sg13
g5
sS'log_total_payments'
p468
F5.2777993913501415
sS'log_restricted_stock'
p469
I0
sS'log_exercised_stock_options'
p470
I0
sg17
g5
sg18
g5
sg19
g5
sg20
g5
sg21
I189583
sS'log_total_stock_value'
p471
I0
sS'log_other'
p472
F5.2777993913501415
sS'log_long_term_incentive'
p473
I0
sg25
g5
sS'log_bonus'
p474
I0
sg27
g5
sS'log_deferral_payments'
p475
I0
sg29
g5
sg30
g5
sg31
F0.0
sg32
g5
sg33
g5
sg34
g5
sS'log_restricted_stock_deferred'
p476
I0
sS'log_director_fees'
p477
I0
sg37
I189583
sS'log_loan_advances'
p478
I0
sg39
g5
sg40
F0.0
sg41
F0.0
sS'log_salary'
p479
I0
ssS'BERGSIEKER RICHARD P'
p480
(dp481
g3
I383
sg4
g5
sS'log_deferred_income'
p482
F5.686469132026799
sg7
I59175
sS'log_expenses'
p483
F4.77213826660112
sg9
I00
sg10
I-485813
sg11
S'rick.bergsieker@enron.com'
p484
sg13
I180250
sS'log_total_payments'
p485
F5.791585395277573
sS'log_restricted_stock'
p486
F5.819049479694427
sS'log_exercised_stock_options'
p487
I0
sg17
g5
sg18
I233
sg19
g5
sg20
I59
sg21
I427316
sS'log_total_stock_value'
p488
F5.819049479694427
sS'log_other'
p489
F5.630749154417052
sS'log_long_term_incentive'
p490
F5.255875273391466
sg25
g5
sS'log_bonus'
p491
F5.397940008672037
sg27
I250000
sS'log_deferral_payments'
p492
I0
sg29
I659249
sg30
I4
sg31
F0.0
sg32
I0
sg33
I659249
sg34
I187922
sS'log_restricted_stock_deferred'
p493
I0
sS'log_director_fees'
p494
I0
sg37
I618850
sS'log_loan_advances'
p495
I0
sg39
g5
sg40
F0.608355091383812
sg41
F0.010443864229765013
sS'log_salary'
p496
F5.273977625865875
ssS'URQUHART JOHN A'
p497
(dp498
g3
g5
sg4
g5
sS'log_deferred_income'
p499
F4.56426353410347
sg7
I228656
sS'log_expenses'
p500
F5.359182601879845
sg9
I00
sg10
I-36666
sg11
g5
sg13
g5
sS'log_total_payments'
p501
F5.359182601879845
sS'log_restricted_stock'
p502
I0
sS'log_exercised_stock_options'
p503
I0
sg17
g5
sg18
g5
sg19
g5
sg20
g5
sg21
g5
sS'log_total_stock_value'
p504
I0
sS'log_other'
p505
I0
sS'log_long_term_incentive'
p506
I0
sg25
I36666
sS'log_bonus'
p507
I0
sg27
g5
sS'log_deferral_payments'
p508
I0
sg29
g5
sg30
g5
sg31
F0.0
sg32
g5
sg33
g5
sg34
g5
sS'log_restricted_stock_deferred'
p509
I0
sS'log_director_fees'
p510
F4.56426353410347
sg37
I228656
sS'log_loan_advances'
p511
I0
sg39
g5
sg40
F0.0
sg41
F0.0
sS'log_salary'
p512
I0
ssS'BIBI PHILIPPE A'
p513
(dp514
g3
I1607
sg4
g5
sS'log_deferred_income'
p515
I0
sg7
I38559
sS'log_expenses'
p516
F4.586125762261046
sg9
I00
sg10
g5
sg11
S'philippe.bibi@enron.com'
p517
sg13
I369721
sS'log_total_payments'
p518
F6.3112436361807225
sS'log_restricted_stock'
p519
F5.577586001650403
sS'log_exercised_stock_options'
p520
F6.166055162110024
sg17
g5
sg18
I1336
sg19
g5
sg20
I40
sg21
I425688
sS'log_total_stock_value'
p521
F6.26571757931426
sS'log_other'
p522
F5.629091407735891
sS'log_long_term_incentive'
p523
F5.567874119020776
sg25
g5
sS'log_bonus'
p524
F5.999999999999999
sg27
I1000000
sS'log_deferral_payments'
p525
I0
sg29
I1843816
sg30
I23
sg31
F0.2
sg32
I8
sg33
I378082
sg34
I213625
sS'log_restricted_stock_deferred'
p526
I0
sS'log_director_fees'
p527
I0
sg37
I2047593
sS'log_loan_advances'
p528
I0
sg39
I1465734
sg40
F0.8313627878033603
sg41
F0.01431238332296204
sS'log_salary'
p529
F5.329652075728792
ssS'RIEKER PAULA H'
p530
(dp531
g3
I1328
sg4
I214678
sS'log_deferred_income'
p532
F5.0
sg7
I33271
sS'log_expenses'
p533
F4.522065854309015
sg9
I01
sg10
I-100000
sg11
S'paula.rieker@enron.com'
p534
sg13
g5
sS'log_total_payments'
p535
F6.041037207867028
sS'log_restricted_stock'
p536
F5.452781256805189
sS'log_exercised_stock_options'
p537
F6.213580970797181
sg17
g5
sg18
I1258
sg19
g5
sg20
I82
sg21
I1950
sS'log_total_stock_value'
p538
F6.283049400623222
sS'log_other'
p539
F3.290034611362518
sS'log_long_term_incentive'
p540
I0
sg25
g5
sS'log_bonus'
p541
F5.845098040014256
sg27
I700000
sS'log_deferral_payments'
p542
F5.331787540625572
sg29
I1918887
sg30
I35
sg31
F0.5853658536585366
sg32
I48
sg33
I283649
sg34
I249201
sS'log_restricted_stock_deferred'
p543
I0
sS'log_director_fees'
p544
I0
sg37
I1099100
sS'log_loan_advances'
p545
I0
sg39
I1635238
sg40
F0.947289156626506
sg41
F0.02635542168674699
sS'log_salary'
p546
F5.396549780738378
ssS'WHALEY DAVID A'
p547
(dp548
g3
g5
sg4
g5
sS'log_deferred_income'
p549
I0
sg7
g5
sS'log_expenses'
p550
I0
sg9
I00
sg10
g5
sg11
g5
sg13
g5
sS'log_total_payments'
p551
I0
sS'log_restricted_stock'
p552
I0
sS'log_exercised_stock_options'
p553
F4.994396348089465
sg17
g5
sg18
g5
sg19
g5
sg20
g5
sg21
g5
sS'log_total_stock_value'
p554
F4.994396348089465
sS'log_other'
p555
I0
sS'log_long_term_incentive'
p556
I0
sg25
g5
sS'log_bonus'
p557
I0
sg27
g5
sS'log_deferral_payments'
p558
I0
sg29
I98718
sg30
g5
sg31
F0.0
sg32
g5
sg33
g5
sg34
g5
sS'log_restricted_stock_deferred'
p559
I0
sS'log_director_fees'
p560
I0
sg37
g5
sS'log_loan_advances'
p561
I0
sg39
I98718
sg40
F0.0
sg41
F0.0
sS'log_salary'
p562
I0
ssS'BECK SALLY W'
p563
(dp564
g3
I7315
sg4
g5
sS'log_deferred_income'
p565
I0
sg7
I37172
sS'log_expenses'
p566
F4.570215928477933
sg9
I00
sg10
g5
sg11
S'sally.beck@enron.com'
p567
sg13
g5
sS'log_total_payments'
p568
F5.986354252787201
sS'log_restricted_stock'
p569
F5.1004635982512045
sS'log_exercised_stock_options'
p570
I0
sg17
g5
sg18
I2639
sg19
g5
sg20
I4343
sg21
I566
sS'log_total_stock_value'
p571
F5.1004635982512045
sS'log_other'
p572
F2.7528164311882715
sS'log_long_term_incentive'
p573
I0
sg25
g5
sS'log_bonus'
p574
F5.845098040014256
sg27
I700000
sS'log_deferral_payments'
p575
I0
sg29
I126027
sg30
I144
sg31
F0.08887865530739121
sg32
I386
sg33
I126027
sg34
I231330
sS'log_restricted_stock_deferred'
p576
I0
sS'log_director_fees'
p577
I0
sg37
I969068
sS'log_loan_advances'
p578
I0
sg39
g5
sg40
F0.36076555023923446
sg41
F0.01968557758031442
sS'log_salary'
p579
F5.364231957844546
ssS'HAUG DAVID L'
p580
(dp581
g3
I573
sg4
g5
sS'log_deferred_income'
p582
I0
sg7
I475
sS'log_expenses'
p583
F2.6766936096248664
sg9
I00
sg10
g5
sg11
S'david.haug@enron.com'
p584
sg13
g5
sS'log_total_payments'
p585
F2.6766936096248664
sS'log_restricted_stock'
p586
F6.345824261131794
sS'log_exercised_stock_options'
p587
I0
sg17
g5
sg18
I471
sg19
g5
sg20
I19
sg21
g5
sS'log_total_stock_value'
p588
F6.345824261131794
sS'log_other'
p589
I0
sS'log_long_term_incentive'
p590
I0
sg25
g5
sS'log_bonus'
p591
I0
sg27
g5
sS'log_deferral_payments'
p592
I0
sg29
I2217299
sg30
I4
sg31
F0.3684210526315789
sg32
I7
sg33
I2217299
sg34
g5
sS'log_restricted_stock_deferred'
p593
I0
sS'log_director_fees'
p594
I0
sg37
I475
sS'log_loan_advances'
p595
I0
sg39
g5
sg40
F0.8219895287958116
sg41
F0.006980802792321117
sS'log_salary'
p596
I0
ssS'ECHOLS JOHN B'
p597
(dp598
g3
g5
sg4
g5
sS'log_deferred_income'
p599
I0
sg7
I21530
sS'log_expenses'
p600
F4.333044029823487
sg9
I00
sg10
g5
sg11
S'john.echols@enron.com'
p601
sg13
I2234774
sS'log_total_payments'
p602
F6.430127322619191
sS'log_restricted_stock'
p603
F5.610130810324216
sS'log_exercised_stock_options'
p604
F5.7791908641851
sg17
g5
sg18
g5
sg19
g5
sg20
g5
sg21
I53775
sS'log_total_stock_value'
p605
F6.003865770673373
sS'log_other'
p606
F4.7305804190595
sS'log_long_term_incentive'
p607
F6.3492336100112805
sg25
g5
sS'log_bonus'
p608
F5.301029995663981
sg27
I200000
sS'log_deferral_payments'
p609
I0
sg29
I1008941
sg30
g5
sg31
F0.0
sg32
g5
sg33
I407503
sg34
I182245
sS'log_restricted_stock_deferred'
p610
I0
sS'log_director_fees'
p611
I0
sg37
I2692324
sS'log_loan_advances'
p612
I0
sg39
I601438
sg40
F0.0
sg41
F0.0
sS'log_salary'
p613
F5.2606556220259675
ssS'MENDELSOHN JOHN'
p614
(dp615
g3
g5
sg4
g5
sS'log_deferred_income'
p616
F5.015988105384129
sg7
I148
sS'log_expenses'
p617
F2.170261715394957
sg9
I00
sg10
I-103750
sg11
g5
sg13
g5
sS'log_total_payments'
p618
F2.170261715394957
sS'log_restricted_stock'
p619
I0
sS'log_exercised_stock_options'
p620
I0
sg17
g5
sg18
g5
sg19
g5
sg20
g5
sg21
g5
sS'log_total_stock_value'
p621
I0
sS'log_other'
p622
I0
sS'log_long_term_incentive'
p623
I0
sg25
I103750
sS'log_bonus'
p624
I0
sg27
g5
sS'log_deferral_payments'
p625
I0
sg29
g5
sg30
g5
sg31
F0.0
sg32
g5
sg33
g5
sg34
g5
sS'log_restricted_stock_deferred'
p626
I0
sS'log_director_fees'
p627
F5.015988105384129
sg37
I148
sS'log_loan_advances'
p628
I0
sg39
g5
sg40
F0.0
sg41
F0.0
sS'log_salary'
p629
I0
ssS'HICKERSON GARY J'
p630
(dp631
g3
I1320
sg4
g5
sS'log_deferred_income'
p632
I0
sg7
I98849
sS'log_expenses'
p633
F4.9949722801577465
sg9
I00
sg10
g5
sg11
S'gary.hickerson@enron.com'
p634
sg13
I69223
sS'log_total_payments'
p635
F6.318438169739823
sS'log_restricted_stock'
p636
F5.644533119474612
sS'log_exercised_stock_options'
p637
I0
sg17
g5
sg18
I900
sg19
g5
sg20
I27
sg21
I1936
sS'log_total_stock_value'
p638
F5.644533119474612
sS'log_other'
p639
F3.2869053529723744
sS'log_long_term_incentive'
p640
F4.84025041690571
sg25
g5
sS'log_bonus'
p641
F6.230448921378273
sg27
I1700000
sS'log_deferral_payments'
p642
I0
sg29
I441096
sg30
I40
sg31
F0.037037037037037035
sg32
I1
sg33
I441096
sg34
I211788
sS'log_restricted_stock_deferred'
p643
I0
sS'log_director_fees'
p644
I0
sg37
I2081796
sS'log_loan_advances'
p645
I0
sg39
g5
sg40
F0.6818181818181818
sg41
F0.030303030303030304
sS'log_salary'
p646
F5.325901349154734
ssS'CLINE KENNETH W'
p647
(dp648
g3
g5
sg4
g5
sS'log_deferred_income'
p649
I0
sg7
g5
sS'log_expenses'
p650
I0
sg9
I00
sg10
g5
sg11
g5
sg13
g5
sS'log_total_payments'
p651
I0
sS'log_restricted_stock'
p652
F5.820914404695953
sS'log_exercised_stock_options'
p653
I0
sg17
I-472568
sg18
g5
sg19
g5
sg20
g5
sg21
g5
sS'log_total_stock_value'
p654
F5.277650464591307
sS'log_other'
p655
I0
sS'log_long_term_incentive'
p656
I0
sg25
g5
sS'log_bonus'
p657
I0
sg27
g5
sS'log_deferral_payments'
p658
I0
sg29
I189518
sg30
g5
sg31
F0.0
sg32
g5
sg33
I662086
sg34
g5
sS'log_restricted_stock_deferred'
p659
F5.674464309987964
sS'log_director_fees'
p660
I0
sg37
g5
sS'log_loan_advances'
p661
I0
sg39
g5
sg40
F0.0
sg41
F0.0
sS'log_salary'
p662
I0
ssS'LEWIS RICHARD'
p663
(dp664
g3
I952
sg4
g5
sS'log_deferred_income'
p665
I0
sg7
g5
sS'log_expenses'
p666
I0
sg9
I00
sg10
g5
sg11
S'richard.lewis@enron.com'
p667
sg13
g5
sS'log_total_payments'
p668
I0
sS'log_restricted_stock'
p669
I0
sS'log_exercised_stock_options'
p670
F5.929662573200617
sg17
g5
sg18
I739
sg19
g5
sg20
I26
sg21
g5
sS'log_total_stock_value'
p671
F5.929662573200617
sS'log_other'
p672
I0
sS'log_long_term_incentive'
p673
I0
sg25
g5
sS'log_bonus'
p674
I0
sg27
g5
sS'log_deferral_payments'
p675
I0
sg29
I850477
sg30
I10
sg31
F0.0
sg32
I0
sg33
g5
sg34
g5
sS'log_restricted_stock_deferred'
p676
I0
sS'log_director_fees'
p677
I0
sg37
g5
sS'log_loan_advances'
p678
I0
sg39
I850477
sg40
F0.7762605042016807
sg41
F0.01050420168067227
sS'log_salary'
p679
I0
ssS'HAYES ROBERT E'
p680
(dp681
g3
I504
sg4
I7961
sS'log_deferred_income'
p682
I0
sg7
g5
sS'log_expenses'
p683
I0
sg9
I00
sg10
g5
sg11
S'robert.hayes@enron.com'
p684
sg13
g5
sS'log_total_payments'
p685
F3.900967623919124
sS'log_restricted_stock'
p686
F5.180177505520792
sS'log_exercised_stock_options'
p687
I0
sg17
g5
sg18
I50
sg19
g5
sg20
I12
sg21
g5
sS'log_total_stock_value'
p688
F5.180177505520792
sS'log_other'
p689
I0
sS'log_long_term_incentive'
p690
I0
sg25
g5
sS'log_bonus'
p691
I0
sg27
g5
sS'log_deferral_payments'
p692
F3.900967623919124
sg29
I151418
sg30
I16
sg31
F0.0
sg32
I0
sg33
I151418
sg34
g5
sS'log_restricted_stock_deferred'
p693
I0
sS'log_director_fees'
p694
I0
sg37
I7961
sS'log_loan_advances'
p695
I0
sg39
g5
sg40
F0.0992063492063492
sg41
F0.031746031746031744
sS'log_salary'
p696
I0
ssS'MCCARTY DANNY J'
p697
(dp698
g3
I1433
sg4
g5
sS'log_deferred_income'
p699
I0
sg7
g5
sS'log_expenses'
p700
I0
sg9
I00
sg10
g5
sg11
S'danny.mccarty@enron.com'
p701
sg13
g5
sS'log_total_payments'
p702
I0
sS'log_restricted_stock'
p703
F4.97568909197763
sS'log_exercised_stock_options'
p704
F5.822413281867371
sg17
g5
sg18
I508
sg19
g5
sg20
I215
sg21
g5
sS'log_total_stock_value'
p705
F5.8802022927842295
sS'log_other'
p706
I0
sS'log_long_term_incentive'
p707
I0
sg25
g5
sS'log_bonus'
p708
I0
sg27
g5
sS'log_deferral_payments'
p709
I0
sg29
I758931
sg30
I25
sg31
F0.009302325581395349
sg32
I2
sg33
I94556
sg34
g5
sS'log_restricted_stock_deferred'
p710
I0
sS'log_director_fees'
p711
I0
sg37
g5
sS'log_loan_advances'
p712
I0
sg39
I664375
sg40
F0.35450104675505933
sg41
F0.017445917655268667
sS'log_salary'
p713
I0
ssS'KOPPER MICHAEL J'
p714
(dp715
g3
g5
sg4
g5
sS'log_deferred_income'
p716
I0
sg7
I118134
sS'log_expenses'
p717
F5.072374909360229
sg9
I01
sg10
g5
sg11
S'michael.kopper@enron.com'
p718
sg13
I602671
sS'log_total_payments'
p719
F6.4236737299739755
sS'log_restricted_stock'
p720
F5.993450339327744
sS'log_exercised_stock_options'
p721
I0
sg17
g5
sg18
g5
sg19
g5
sg20
g5
sg21
I907502
sS'log_total_stock_value'
p722
F5.993450339327744
sS'log_other'
p723
F5.95784759082992
sS'log_long_term_incentive'
p724
F5.780080294101079
sg25
g5
sS'log_bonus'
p725
F5.903089986991943
sg27
I800000
sS'log_deferral_payments'
p726
I0
sg29
I985032
sg30
g5
sg31
F0.0
sg32
g5
sg33
I985032
sg34
I224305
sS'log_restricted_stock_deferred'
p727
I0
sS'log_director_fees'
p728
I0
sg37
I2652612
sS'log_loan_advances'
p729
I0
sg39
g5
sg40
F0.0
sg41
F0.0
sS'log_salary'
p730
F5.350838954582553
ssS'LEFF DANIEL P'
p731
(dp732
g3
I2822
sg4
g5
sS'log_deferred_income'
p733
I0
sg7
g5
sS'log_expenses'
p734
I0
sg9
I00
sg10
g5
sg11
S'dan.leff@enron.com'
p735
sg13
I1387399
sS'log_total_payments'
p736
F6.425571388255324
sS'log_restricted_stock'
p737
F5.556938999355794
sS'log_exercised_stock_options'
p738
I0
sg17
g5
sg18
I2672
sg19
g5
sg20
I63
sg21
I3083
sS'log_total_stock_value'
p739
F5.556938999355794
sS'log_other'
p740
F3.488973524726508
sS'log_long_term_incentive'
p741
F6.142201377135807
sg25
g5
sS'log_bonus'
p742
F5.999999999999999
sg27
I1000000
sS'log_deferral_payments'
p743
I0
sg29
I360528
sg30
I67
sg31
F0.2222222222222222
sg32
I14
sg33
I360528
sg34
I273746
sS'log_restricted_stock_deferred'
p744
I0
sS'log_director_fees'
p745
I0
sg37
I2664228
sS'log_loan_advances'
p746
I0
sg39
g5
sg40
F0.9468462083628633
sg41
F0.02374202693125443
sS'log_salary'
p747
F5.437347781946368
ssS'LAVORATO JOHN J'
p748
(dp749
g3
I7259
sg4
g5
sS'log_deferred_income'
p750
I0
sg7
I49537
sS'log_expenses'
p751
F4.694929701828002
sg9
I00
sg10
g5
sg11
S'john.lavorato@enron.com'
p752
sg13
I2035380
sS'log_total_payments'
p753
F7.018107598320814
sS'log_restricted_stock'
p754
F6.00352472367265
sS'log_exercised_stock_options'
p755
F6.6189883982505515
sg17
g5
sg18
I3962
sg19
g5
sg20
I2585
sg21
I1552
sS'log_total_stock_value'
p756
F6.713250564803638
sS'log_other'
p757
F3.1908917169221693
sS'log_long_term_incentive'
p758
F6.308645502748784
sg25
g5
sS'log_bonus'
p759
F6.903089986991943
sg27
I8000000
sS'log_deferral_payments'
p760
I0
sg29
I5167144
sg30
I528
sg31
F0.15899419729206962
sg32
I411
sg33
I1008149
sg34
I339288
sS'log_restricted_stock_deferred'
p761
I0
sS'log_director_fees'
p762
I0
sg37
I10425757
sS'log_loan_advances'
p763
I0
sg39
I4158995
sg40
F0.5458052073288332
sg41
F0.07273729163796666
sS'log_salary'
p764
F5.5305684997101245
ssS'BERBERIAN DAVID'
p765
(dp766
g3
g5
sg4
g5
sS'log_deferred_income'
p767
I0
sg7
I11892
sS'log_expenses'
p768
F4.0752549005329
sg9
I00
sg10
g5
sg11
S'david.berberian@enron.com'
p769
sg13
g5
sS'log_total_payments'
p770
F5.358836785154263
sS'log_restricted_stock'
p771
F5.939129710503652
sS'log_exercised_stock_options'
p772
F6.210691911389246
sg17
g5
sg18
g5
sg19
g5
sg20
g5
sg21
g5
sS'log_total_stock_value'
p773
F6.39682957587827
sS'log_other'
p774
I0
sS'log_long_term_incentive'
p775
I0
sg25
g5
sS'log_bonus'
p776
I0
sg27
g5
sS'log_deferral_payments'
p777
I0
sg29
I2493616
sg30
g5
sg31
F0.0
sg32
g5
sg33
I869220
sg34
I216582
sS'log_restricted_stock_deferred'
p778
I0
sS'log_director_fees'
p779
I0
sg37
I228474
sS'log_loan_advances'
p780
I0
sg39
I1624396
sg40
F0.0
sg41
F0.0
sS'log_salary'
p781
F5.335622359835419
ssS'DETMERING TIMOTHY J'
p782
(dp783
g3
g5
sg4
I875307
sS'log_deferred_income'
p784
F5.889436733086693
sg7
I52255
sS'log_expenses'
p785
F4.718127852075301
sg9
I00
sg10
I-775241
sg11
S'timothy.detmering@enron.com'
p786
sg13
I415657
sS'log_total_payments'
p787
F6.080836729780693
sS'log_restricted_stock'
p788
F5.498404296131328
sS'log_exercised_stock_options'
p789
F6.30703903956338
sg17
I-315068
sg18
g5
sg19
g5
sg20
g5
sg21
I1105
sS'log_total_stock_value'
p790
F6.30703903956338
sS'log_other'
p791
F3.043362278021129
sS'log_long_term_incentive'
p792
F5.618735098769766
sg25
g5
sS'log_bonus'
p793
F5.628388930050311
sg27
I425000
sS'log_deferral_payments'
p794
F5.942160401618658
sg29
I2027865
sg30
g5
sg31
F0.0
sg32
g5
sg33
I315068
sg34
I210500
sS'log_restricted_stock_deferred'
p795
F5.498404296131328
sS'log_director_fees'
p796
I0
sg37
I1204583
sS'log_loan_advances'
p797
I0
sg39
I2027865
sg40
F0.0
sg41
F0.0
sS'log_salary'
p798
F5.323252100171686
ssS'WAKEHAM JOHN'
p799
(dp800
g3
g5
sg4
g5
sS'log_deferred_income'
p801
I0
sg7
I103773
sS'log_expenses'
p802
F5.016084372044931
sg9
I00
sg10
g5
sg11
g5
sg13
g5
sS'log_total_payments'
p803
F5.328524344143927
sS'log_restricted_stock'
p804
I0
sS'log_exercised_stock_options'
p805
I0
sg17
g5
sg18
g5
sg19
g5
sg20
g5
sg21
g5
sS'log_total_stock_value'
p806
I0
sS'log_other'
p807
I0
sS'log_long_term_incentive'
p808
I0
sg25
I109298
sS'log_bonus'
p809
I0
sg27
g5
sS'log_deferral_payments'
p810
I0
sg29
g5
sg30
g5
sg31
F0.0
sg32
g5
sg33
g5
sg34
g5
sS'log_restricted_stock_deferred'
p811
I0
sS'log_director_fees'
p812
F5.038612215042925
sg37
I213071
sS'log_loan_advances'
p813
I0
sg39
g5
sg40
F0.0
sg41
F0.0
sS'log_salary'
p814
I0
ssS'POWERS WILLIAM'
p815
(dp816
g3
I653
sg4
g5
sS'log_deferred_income'
p817
F4.243038048686294
sg7
g5
sS'log_expenses'
p818
I0
sg9
I00
sg10
I-17500
sg11
S'ken.powers@enron.com'
p819
sg13
g5
sS'log_total_payments'
p820
I0
sS'log_restricted_stock'
p821
I0
sS'log_exercised_stock_options'
p822
I0
sg17
g5
sg18
I12
sg19
g5
sg20
I26
sg21
g5
sS'log_total_stock_value'
p823
I0
sS'log_other'
p824
I0
sS'log_long_term_incentive'
p825
I0
sg25
I17500
sS'log_bonus'
p826
I0
sg27
g5
sS'log_deferral_payments'
p827
I0
sg29
g5
sg30
I0
sg31
F0.0
sg32
I0
sg33
g5
sg34
g5
sS'log_restricted_stock_deferred'
p828
I0
sS'log_director_fees'
p829
F4.243038048686294
sg37
g5
sS'log_loan_advances'
p830
I0
sg39
g5
sg40
F0.018376722817764167
sg41
F0.0
sS'log_salary'
p831
I0
ssS'GOLD JOSEPH'
p832
(dp833
g3
g5
sg4
g5
sS'log_deferred_income'
p834
I0
sg7
g5
sS'log_expenses'
p835
I0
sg9
I00
sg10
g5
sg11
S'joe.gold@enron.com'
p836
sg13
I304805
sS'log_total_payments'
p837
F6.331826582850434
sS'log_restricted_stock'
p838
F5.644533119474612
sS'log_exercised_stock_options'
p839
F5.639999171994164
sg17
g5
sg18
g5
sg19
g5
sg20
g5
sg21
I819288
sS'log_total_stock_value'
p840
F5.943302058059546
sS'log_other'
p841
F5.913436593853721
sS'log_long_term_incentive'
p842
F5.484022086862441
sg25
g5
sS'log_bonus'
p843
F5.8750612633917
sg27
I750000
sS'log_deferral_payments'
p844
I0
sg29
I877611
sg30
g5
sg31
F0.0
sg32
g5
sg33
I441096
sg34
I272880
sS'log_restricted_stock_deferred'
p845
I0
sS'log_director_fees'
p846
I0
sg37
I2146973
sS'log_loan_advances'
p847
I0
sg39
I436515
sg40
F0.0
sg41
F0.0
sS'log_salary'
p848
F5.43597170639934
ssS'BANNANTINE JAMES M'
p849
(dp850
g3
I566
sg4
g5
sS'log_deferred_income'
p851
F3.707910665713105
sg7
I56301
sS'log_expenses'
p852
F4.750516108716798
sg9
I00
sg10
I-5104
sg11
S'james.bannantine@enron.com'
p853
sg13
g5
sS'log_total_payments'
p854
F5.961988865386387
sS'log_restricted_stock'
p855
F6.244908183182031
sS'log_exercised_stock_options'
p856
F6.607042730365282
sg17
I-560222
sg18
I465
sg19
g5
sg20
I29
sg21
I864523
sS'log_total_stock_value'
p857
F6.719620195610073
sS'log_other'
p858
F5.936776551849629
sS'log_long_term_incentive'
p859
I0
sg25
g5
sS'log_bonus'
p860
I0
sg27
g5
sS'log_deferral_payments'
p861
I0
sg29
I5243487
sg30
I39
sg31
F0.0
sg32
I0
sg33
I1757552
sg34
I477
sS'log_restricted_stock_deferred'
p862
F5.748360159630349
sS'log_director_fees'
p863
I0
sg37
I916197
sS'log_loan_advances'
p864
I0
sg39
I4046157
sg40
F0.8215547703180212
sg41
F0.06890459363957598
sS'log_salary'
p865
F2.678518379040114
ssS'DUNCAN JOHN H'
p866
(dp867
g3
g5
sg4
g5
sS'log_deferred_income'
p868
F4.3979400086720375
sg7
g5
sS'log_expenses'
p869
I0
sg9
I00
sg10
I-25000
sg11
g5
sg13
g5
sS'log_total_payments'
p870
F4.889256869794191
sS'log_restricted_stock'
p871
I0
sS'log_exercised_stock_options'
p872
F5.570250977193991
sg17
g5
sg18
g5
sg19
g5
sg20
g5
sg21
g5
sS'log_total_stock_value'
p873
F5.570250977193991
sS'log_other'
p874
I0
sS'log_long_term_incentive'
p875
I0
sg25
I102492
sS'log_bonus'
p876
I0
sg27
g5
sS'log_deferral_payments'
p877
I0
sg29
I371750
sg30
g5
sg31
F0.0
sg32
g5
sg33
g5
sg34
g5
sS'log_restricted_stock_deferred'
p878
I0
sS'log_director_fees'
p879
F5.010689967914241
sg37
I77492
sS'log_loan_advances'
p880
I0
sg39
I371750
sg40
F0.0
sg41
F0.0
sS'log_salary'
p881
I0
ssS'SHAPIRO RICHARD S'
p882
(dp883
g3
I15149
sg4
g5
sS'log_deferred_income'
p884
I0
sg7
I137767
sS'log_expenses'
p885
F5.139145201357972
sg9
I00
sg10
g5
sg11
S'richard.shapiro@enron.com'
p886
sg13
g5
sS'log_total_payments'
p887
F6.024300088257048
sS'log_restricted_stock'
p888
F5.578827096219973
sS'log_exercised_stock_options'
p889
F5.783787132740882
sg17
g5
sg18
I4527
sg19
g5
sg20
I1215
sg21
I705
sS'log_total_stock_value'
p890
F5.9943175926840855
sS'log_other'
p891
F2.8481891169913984
sS'log_long_term_incentive'
p892
I0
sg25
g5
sS'log_bonus'
p893
F5.812913356642855
sg27
I650000
sS'log_deferral_payments'
p894
I0
sg29
I987001
sg30
I74
sg31
F0.053497942386831275
sg32
I65
sg33
I379164
sg34
I269076
sS'log_restricted_stock_deferred'
p895
I0
sS'log_director_fees'
p896
I0
sg37
I1057548
sS'log_loan_advances'
p897
I0
sg39
I607837
sg40
F0.29883160604660375
sg41
F0.0048848108786058485
sS'log_salary'
p898
F5.429874962972264
ssS'SHERRIFF JOHN R'
p899
(dp900
g3
I3187
sg4
g5
sS'log_deferred_income'
p901
I0
sg7
g5
sS'log_expenses'
p902
I0
sg9
I00
sg10
g5
sg11
S'john.sherriff@enron.com'
p903
sg13
I554422
sS'log_total_payments'
p904
F6.63702797118211
sS'log_restricted_stock'
p905
F6.1117409151937965
sS'log_exercised_stock_options'
p906
F6.263768111902921
sg17
g5
sg18
I2103
sg19
g5
sg20
I92
sg21
I1852186
sS'log_total_stock_value'
p907
F6.495403064800664
sS'log_other'
p908
F6.267684597204187
sS'log_long_term_incentive'
p909
F5.7438404551698286
sg25
g5
sS'log_bonus'
p910
F6.176091259055681
sg27
I1500000
sS'log_deferral_payments'
p911
I0
sg29
I3128982
sg30
I28
sg31
F0.25
sg32
I23
sg33
I1293424
sg34
I428780
sS'log_restricted_stock_deferred'
p912
I0
sS'log_director_fees'
p913
I0
sg37
I4335388
sS'log_loan_advances'
p914
I0
sg39
I1835558
sg40
F0.6598682146219015
sg41
F0.008785691873235017
sS'log_salary'
p915
F5.632234519939827
ssS'SHELBY REX'
p916
(dp917
g3
I225
sg4
g5
sS'log_deferred_income'
p918
F3.619823500457278
sg7
I22884
sS'log_expenses'
p919
F4.35953193909363
sg9
I01
sg10
I-4167
sg11
S'rex.shelby@enron.com'
p920
sg13
g5
sS'log_total_payments'
p921
F6.301872794391568
sS'log_restricted_stock'
p922
F5.939129710503652
sS'log_exercised_stock_options'
p923
F6.210691911389246
sg17
g5
sg18
I91
sg19
g5
sg20
I39
sg21
I1573324
sS'log_total_stock_value'
p924
F6.39682957587827
sS'log_other'
p925
F6.196818167583586
sS'log_long_term_incentive'
p926
I0
sg25
g5
sS'log_bonus'
p927
F5.301029995663981
sg27
I200000
sS'log_deferral_payments'
p928
I0
sg29
I2493616
sg30
I13
sg31
F0.358974358974359
sg32
I14
sg33
I869220
sg34
I211844
sS'log_restricted_stock_deferred'
p929
I0
sS'log_director_fees'
p930
I0
sg37
I2003885
sS'log_loan_advances'
p931
I0
sg39
I1624396
sg40
F0.40444444444444444
sg41
F0.057777777777777775
sS'log_salary'
p932
F5.326016168106693
ssS'LEMAISTRE CHARLES'
p933
(dp934
g3
g5
sg4
g5
sS'log_deferred_income'
p935
F4.3979400086720375
sg7
g5
sS'log_expenses'
p936
I0
sg9
I00
sg10
I-25000
sg11
g5
sg13
g5
sS'log_total_payments'
p937
F4.9419683442829685
sS'log_restricted_stock'
p938
I0
sS'log_exercised_stock_options'
p939
F5.6158217423245675
sg17
g5
sg18
g5
sg19
g5
sg20
g5
sg21
g5
sS'log_total_stock_value'
p940
F5.6158217423245675
sS'log_other'
p941
I0
sS'log_long_term_incentive'
p942
I0
sg25
I112492
sS'log_bonus'
p943
I0
sg27
g5
sS'log_deferral_payments'
p944
I0
sg29
I412878
sg30
g5
sg31
F0.0
sg32
g5
sg33
g5
sg34
g5
sS'log_restricted_stock_deferred'
p945
I0
sS'log_director_fees'
p946
F5.051121638186103
sg37
I87492
sS'log_loan_advances'
p947
I0
sg39
I412878
sg40
F0.0
sg41
F0.0
sS'log_salary'
p948
I0
ssS'DEFFNER JOSEPH M'
p949
(dp950
g3
I714
sg4
g5
sS'log_deferred_income'
p951
I0
sg7
I41626
sS'log_expenses'
p952
F4.619364679890118
sg9
I00
sg10
g5
sg11
S'joseph.deffner@enron.com'
p953
sg13
I335349
sS'log_total_payments'
p954
F6.082300197059749
sS'log_restricted_stock'
p955
F5.151777289031162
sS'log_exercised_stock_options'
p956
F4.239999792886871
sg17
g5
sg18
I552
sg19
g5
sg20
I74
sg21
I25553
sS'log_total_stock_value'
p957
F5.20197307014955
sS'log_other'
p958
F4.40744189495846
sS'log_long_term_incentive'
p959
F5.525497015626336
sg25
g5
sS'log_bonus'
p960
F5.778151250383643
sg27
I600000
sS'log_deferral_payments'
p961
I0
sg29
I159211
sg30
I115
sg31
F0.05405405405405406
sg32
I4
sg33
I141833
sg34
I206121
sS'log_restricted_stock_deferred'
p962
I0
sS'log_director_fees'
p963
I0
sg37
I1208649
sS'log_loan_advances'
p964
I0
sg39
I17378
sg40
F0.773109243697479
sg41
F0.16106442577030813
sS'log_salary'
p965
F5.314122240782188
ssS'KISHKILL JOSEPH G'
p966
(dp967
g3
g5
sg4
g5
sS'log_deferred_income'
p968
F4.707927683188545
sg7
I116335
sS'log_expenses'
p969
F5.065710394178929
sg9
I00
sg10
I-51042
sg11
S'joe.kishkill@enron.com'
p970
sg13
g5
sS'log_total_payments'
p971
F5.848125046129151
sS'log_restricted_stock'
p972
F6.014665839294816
sS'log_exercised_stock_options'
p973
I0
sg17
g5
sg18
g5
sg19
g5
sg20
g5
sg21
I465357
sS'log_total_stock_value'
p974
F6.014665839294816
sS'log_other'
p975
F5.667786251048938
sS'log_long_term_incentive'
p976
I0
sg25
g5
sS'log_bonus'
p977
I0
sg27
g5
sS'log_deferral_payments'
p978
I0
sg29
I1034346
sg30
g5
sg31
F0.0
sg32
g5
sg33
I1034346
sg34
I174246
sS'log_restricted_stock_deferred'
p979
I0
sS'log_director_fees'
p980
I0
sg37
I704896
sS'log_loan_advances'
p981
I0
sg39
g5
sg40
F0.0
sg41
F0.0
sS'log_salary'
p982
F5.241162817198357
ssS'WHALLEY LAWRENCE G'
p983
(dp984
g3
I6019
sg4
g5
sS'log_deferred_income'
p985
I0
sg7
I57838
sS'log_expenses'
p986
F4.762213266928569
sg9
I00
sg10
g5
sg11
S'greg.whalley@enron.com'
p987
sg13
I808346
sS'log_total_payments'
p988
F6.670020666837455
sS'log_restricted_stock'
p989
F6.446564659094486
sS'log_exercised_stock_options'
p990
F6.516265591262661
sg17
g5
sg18
I3920
sg19
g5
sg20
I556
sg21
I301026
sS'log_total_stock_value'
p991
F6.783841930795789
sS'log_other'
p992
F5.478604007782806
sS'log_long_term_incentive'
p993
F5.907597293604603
sg25
g5
sS'log_bonus'
p994
F6.477121254719662
sg27
I3000000
sS'log_deferral_payments'
p995
I0
sg29
I6079137
sg30
I186
sg31
F0.04316546762589928
sg32
I24
sg33
I2796177
sg34
I510364
sS'log_restricted_stock_deferred'
p996
I0
sS'log_director_fees'
p997
I0
sg37
I4677574
sS'log_loan_advances'
p998
I0
sg39
I3282960
sg40
F0.6512709752450573
sg41
F0.03090214321315833
sS'log_salary'
p999
F5.707880032576837
ssS'MCCONNELL MICHAEL S'
p1000
(dp1001
g3
I3329
sg4
g5
sS'log_deferred_income'
p1002
I0
sg7
I81364
sS'log_expenses'
p1003
F4.910432291134274
sg9
I00
sg10
g5
sg11
S'mike.mcconnell@enron.com'
p1004
sg13
I554422
sS'log_total_payments'
p1005
F6.322501287769575
sS'log_restricted_stock'
p1006
F6.169753469637744
sS'log_exercised_stock_options'
p1007
F6.210321195692799
sg17
g5
sg18
I2189
sg19
g5
sg20
I2742
sg21
I540
sS'log_total_stock_value'
p1008
F6.491540838378561
sS'log_other'
p1009
F2.7323937598229686
sS'log_long_term_incentive'
p1010
F5.7438404551698286
sg25
g5
sS'log_bonus'
p1011
F6.0413926851582245
sg27
I1100000
sS'log_deferral_payments'
p1012
I0
sg29
I3101279
sg30
I92
sg31
F0.07075127644055434
sg32
I194
sg33
I1478269
sg34
I365038
sS'log_restricted_stock_deferred'
p1013
I0
sS'log_director_fees'
p1014
I0
sg37
I2101364
sS'log_loan_advances'
p1015
I0
sg39
I1623010
sg40
F0.657554821267648
sg41
F0.02763592670471613
sS'log_salary'
p1016
F5.562338076323054
ssS'PIRO JIM'
p1017
(dp1018
g3
I58
sg4
g5
sS'log_deferred_income'
p1019
I0
sg7
g5
sS'log_expenses'
p1020
I0
sg9
I00
sg10
g5
sg11
S'jim.piro@enron.com'
p1021
sg13
g5
sS'log_total_payments'
p1022
I0
sS'log_restricted_stock'
p1023
F4.674897865991048
sS'log_exercised_stock_options'
p1024
I0
sg17
g5
sg18
I3
sg19
g5
sg20
I16
sg21
g5
sS'log_total_stock_value'
p1025
F4.674897865991048
sS'log_other'
p1026
I0
sS'log_long_term_incentive'
p1027
I0
sg25
g5
sS'log_bonus'
p1028
I0
sg27
g5
sS'log_deferral_payments'
p1029
I0
sg29
I47304
sg30
I0
sg31
F0.0625
sg32
I1
sg33
I47304
sg34
g5
sS'log_restricted_stock_deferred'
p1030
I0
sS'log_director_fees'
p1031
I0
sg37
g5
sS'log_loan_advances'
p1032
I0
sg39
g5
sg40
F0.05172413793103448
sg41
F0.0
sS'log_salary'
p1033
I0
ssS'DELAINEY DAVID W'
p1034
(dp1035
g3
I3093
sg4
g5
sS'log_deferred_income'
p1036
I0
sg7
I86174
sS'log_expenses'
p1037
F4.935376252370071
sg9
I01
sg10
g5
sg11
S'david.delainey@enron.com'
p1038
sg13
I1294981
sS'log_total_payments'
p1039
F6.676508789430765
sS'log_restricted_stock'
p1040
F6.121608424677623
sS'log_exercised_stock_options'
p1041
F6.360046509558761
sg17
g5
sg18
I2097
sg19
g5
sg20
I3069
sg21
I1661
sS'log_total_stock_value'
p1042
F6.558019511469772
sS'log_other'
p1043
F3.220369632451394
sS'log_long_term_incentive'
p1044
F6.1122633964823745
sg25
g5
sS'log_bonus'
p1045
F6.477121254719662
sg27
I3000000
sS'log_deferral_payments'
p1046
I0
sg29
I3614261
sg30
I66
sg31
F0.198435972629521
sg32
I609
sg33
I1323148
sg34
I365163
sS'log_restricted_stock_deferred'
p1047
I0
sS'log_director_fees'
p1048
I0
sg37
I4747979
sS'log_loan_advances'
p1049
I0
sg39
I2291113
sg40
F0.6779825412221144
sg41
F0.02133850630455868
sS'log_salary'
p1050
F5.5624867663707755
ssS'SULLIVAN-SHAKLOVITZ COLLEEN'
p1051
(dp1052
g3
g5
sg4
I181993
sS'log_deferred_income'
p1053
I0
sg7
g5
sS'log_expenses'
p1054
I0
sg9
I00
sg10
g5
sg11
g5
sg13
I554422
sS'log_total_payments'
p1055
F5.999720224256191
sS'log_restricted_stock'
p1056
I0
sS'log_exercised_stock_options'
p1057
F6.1342966655904325
sg17
g5
sg18
g5
sg19
g5
sg20
g5
sg21
I162
sS'log_total_stock_value'
p1058
F6.1342966655904325
sS'log_other'
p1059
F2.2095150145426303
sS'log_long_term_incentive'
p1060
F5.7438404551698286
sg25
g5
sS'log_bonus'
p1061
F5.0
sg27
I100000
sS'log_deferral_payments'
p1062
F5.260054684029923
sg29
I1362375
sg30
g5
sg31
F0.0
sg32
g5
sg33
g5
sg34
I162779
sS'log_restricted_stock_deferred'
p1063
I0
sS'log_director_fees'
p1064
I0
sg37
I999356
sS'log_loan_advances'
p1065
I0
sg39
I1362375
sg40
F0.0
sg41
F0.0
sS'log_salary'
p1066
F5.211598376152759
ssS'WROBEL BRUCE'
p1067
(dp1068
g3
g5
sg4
g5
sS'log_deferred_income'
p1069
I0
sg7
g5
sS'log_expenses'
p1070
I0
sg9
I00
sg10
g5
sg11
g5
sg13
g5
sS'log_total_payments'
p1071
I0
sS'log_restricted_stock'
p1072
I0
sS'log_exercised_stock_options'
p1073
F5.143420785129936
sg17
g5
sg18
g5
sg19
g5
sg20
g5
sg21
g5
sS'log_total_stock_value'
p1074
F5.143420785129936
sS'log_other'
p1075
I0
sS'log_long_term_incentive'
p1076
I0
sg25
g5
sS'log_bonus'
p1077
I0
sg27
g5
sS'log_deferral_payments'
p1078
I0
sg29
I139130
sg30
g5
sg31
F0.0
sg32
g5
sg33
g5
sg34
g5
sS'log_restricted_stock_deferred'
p1079
I0
sS'log_director_fees'
p1080
I0
sg37
g5
sS'log_loan_advances'
p1081
I0
sg39
I139130
sg40
F0.0
sg41
F0.0
sS'log_salary'
p1082
I0
ssS'LINDHOLM TOD A'
p1083
(dp1084
g3
g5
sg4
I204075
sS'log_deferred_income'
p1085
I0
sg7
I57727
sS'log_expenses'
p1086
F4.7613789883439495
sg9
I00
sg10
g5
sg11
S'tod.lindholm@enron.com'
p1087
sg13
I175000
sS'log_total_payments'
p1088
F5.942449072216093
sS'log_restricted_stock'
p1089
F5.711678186462594
sS'log_exercised_stock_options'
p1090
F6.406431337708213
sg17
g5
sg18
g5
sg19
g5
sg20
g5
sg21
I2630
sS'log_total_stock_value'
p1091
F6.486318242091842
sS'log_other'
p1092
F3.4199557484897576
sS'log_long_term_incentive'
p1093
F5.243038048686294
sg25
g5
sS'log_bonus'
p1094
F5.301029995663981
sg27
I200000
sS'log_deferral_payments'
p1095
F5.309789805171457
sg29
I3064208
sg30
g5
sg31
F0.0
sg32
g5
sg33
I514847
sg34
I236457
sS'log_restricted_stock_deferred'
p1096
I0
sS'log_director_fees'
p1097
I0
sg37
I875889
sS'log_loan_advances'
p1098
I0
sg39
I2549361
sg40
F0.0
sg41
F0.0
sS'log_salary'
p1099
F5.373752175261465
ssS'MEYER JEROME J'
p1100
(dp1101
g3
g5
sg4
g5
sS'log_deferred_income'
p1102
F4.583720067932199
sg7
I2151
sS'log_expenses'
p1103
F3.3326404103874623
sg9
I00
sg10
I-38346
sg11
g5
sg13
g5
sS'log_total_payments'
p1104
F3.3326404103874623
sS'log_restricted_stock'
p1105
I0
sS'log_exercised_stock_options'
p1106
I0
sg17
g5
sg18
g5
sg19
g5
sg20
g5
sg21
g5
sS'log_total_stock_value'
p1107
I0
sS'log_other'
p1108
I0
sS'log_long_term_incentive'
p1109
I0
sg25
I38346
sS'log_bonus'
p1110
I0
sg27
g5
sS'log_deferral_payments'
p1111
I0
sg29
g5
sg30
g5
sg31
F0.0
sg32
g5
sg33
g5
sg34
g5
sS'log_restricted_stock_deferred'
p1112
I0
sS'log_director_fees'
p1113
F4.583720067932199
sg37
I2151
sS'log_loan_advances'
p1114
I0
sg39
g5
sg40
F0.0
sg41
F0.0
sS'log_salary'
p1115
I0
ssS'LAY KENNETH L'
p1116
(dp1117
g3
I4273
sg4
I202911
sS'log_deferred_income'
p1118
F5.477121254719662
sg7
I99832
sS'log_expenses'
p1119
F4.999269771706742
sg9
I01
sg10
I-300000
sg11
S'kenneth.lay@enron.com'
p1120
sg13
I3600000
sS'log_total_payments'
p1121
F8.015191173676241
sS'log_restricted_stock'
p1122
F7.169136198451647
sS'log_exercised_stock_options'
p1123
F7.535906309477319
sg17
g5
sg18
I2411
sg19
I81525000
sg20
I36
sg21
I10359729
sS'log_total_stock_value'
p1124
F7.691170623908485
sS'log_other'
p1125
F7.015348394854777
sS'log_long_term_incentive'
p1126
F6.556302500767286
sg25
g5
sS'log_bonus'
p1127
F6.845098040014256
sg27
I7000000
sS'log_deferral_payments'
p1128
F5.3073055911920894
sg29
I49110078
sg30
I123
sg31
F0.4444444444444444
sg32
I16
sg33
I14761694
sg34
I1072321
sS'log_restricted_stock_deferred'
p1129
I0
sS'log_director_fees'
p1130
I0
sg37
I103559793
sS'log_loan_advances'
p1131
F7.911290807477994
sg39
I34348384
sg40
F0.5642405803884858
sg41
F0.028785396676807865
sS'log_salary'
p1132
F6.030324811159541
ssS'BUTTS ROBERT H'
p1133
(dp1134
g3
g5
sg4
g5
sS'log_deferred_income'
p1135
F4.875061263391699
sg7
I9410
sS'log_expenses'
p1136
F3.973589623427257
sg9
I00
sg10
I-75000
sg11
S'bob.butts@enron.com'
p1137
sg13
I175000
sS'log_total_payments'
p1138
F6.104344371589382
sS'log_restricted_stock'
p1139
F5.620780249111653
sS'log_exercised_stock_options'
p1140
I0
sg17
g5
sg18
g5
sg19
g5
sg20
g5
sg21
I150656
sS'log_total_stock_value'
p1141
F5.620780249111653
sS'log_other'
p1142
F5.177986432491302
sS'log_long_term_incentive'
p1143
F5.243038048686294
sg25
g5
sS'log_bonus'
p1144
F5.8750612633917
sg27
I750000
sS'log_deferral_payments'
p1145
I0
sg29
I417619
sg30
g5
sg31
F0.0
sg32
g5
sg33
I417619
sg34
I261516
sS'log_restricted_stock_deferred'
p1146
I0
sS'log_director_fees'
p1147
I0
sg37
I1271582
sS'log_loan_advances'
p1148
I0
sg39
g5
sg40
F0.0
sg41
F0.0
sS'log_salary'
p1149
F5.417498264901721
ssS'OLSON CINDY K'
p1150
(dp1151
g3
I1184
sg4
I77716
sS'log_deferred_income'
p1152
I0
sg7
I63791
sS'log_expenses'
p1153
F4.804759410287752
sg9
I00
sg10
g5
sg11
S'cindy.olson@enron.com'
p1154
sg13
I100000
sS'log_total_payments'
p1155
F6.121085899402358
sS'log_restricted_stock'
p1156
F5.986650383494707
sS'log_exercised_stock_options'
p1157
F6.214057699484662
sg17
g5
sg18
I856
sg19
g5
sg20
I52
sg21
I972
sS'log_total_stock_value'
p1158
F6.416101548057078
sS'log_other'
p1159
F2.987666264926274
sS'log_long_term_incentive'
p1160
F5.0
sg25
g5
sS'log_bonus'
p1161
F5.8750612633917
sg27
I750000
sS'log_deferral_payments'
p1162
F4.890510439603598
sg29
I2606763
sg30
I20
sg31
F0.28846153846153844
sg32
I15
sg33
I969729
sg34
I329078
sS'log_restricted_stock_deferred'
p1163
I0
sS'log_director_fees'
p1164
I0
sg37
I1321557
sS'log_loan_advances'
p1165
I0
sg39
I1637034
sg40
F0.722972972972973
sg41
F0.016891891891891893
sS'log_salary'
p1166
F5.517298849179911
ssS'MCDONALD REBECCA'
p1167
(dp1168
g3
I894
sg4
g5
sS'log_deferred_income'
p1169
I0
sg7
g5
sS'log_expenses'
p1170
I0
sg9
I00
sg10
g5
sg11
S'rebecca.mcdonald@enron.com'
p1171
sg13
g5
sS'log_total_payments'
p1172
I0
sS'log_restricted_stock'
p1173
F5.970377099098499
sS'log_exercised_stock_options'
p1174
F5.879268530301696
sg17
g5
sg18
I720
sg19
g5
sg20
I13
sg21
g5
sS'log_total_stock_value'
p1175
F6.228237596114062
sS'log_other'
p1176
I0
sS'log_long_term_incentive'
p1177
I0
sg25
g5
sS'log_bonus'
p1178
I0
sg27
g5
sS'log_deferral_payments'
p1179
I0
sg29
I1691366
sg30
I54
sg31
F0.07692307692307693
sg32
I1
sg33
I934065
sg34
g5
sS'log_restricted_stock_deferred'
p1180
I0
sS'log_director_fees'
p1181
I0
sg37
g5
sS'log_loan_advances'
p1182
I0
sg39
I757301
sg40
F0.8053691275167785
sg41
F0.06040268456375839
sS'log_salary'
p1183
I0
ssS'CUMBERLAND MICHAEL S'
p1184
(dp1185
g3
g5
sg4
g5
sS'log_deferred_income'
p1186
I0
sg7
I22344
sS'log_expenses'
p1187
F4.349160922692948
sg9
I00
sg10
g5
sg11
g5
sg13
I275000
sS'log_total_payments'
p1188
F5.907387710431125
sS'log_restricted_stock'
p1189
F5.317938039636056
sS'log_exercised_stock_options'
p1190
I0
sg17
g5
sg18
g5
sg19
g5
sg20
g5
sg21
I713
sS'log_total_stock_value'
p1191
F5.317938039636056
sS'log_other'
p1192
F2.8530895298518653
sS'log_long_term_incentive'
p1193
F5.439332693830262
sg25
g5
sS'log_bonus'
p1194
F5.5118833609788735
sg27
I325000
sS'log_deferral_payments'
p1195
I0
sg29
I207940
sg30
g5
sg31
F0.0
sg32
g5
sg33
I207940
sg34
I184899
sS'log_restricted_stock_deferred'
p1196
I0
sS'log_director_fees'
p1197
I0
sg37
I807956
sS'log_loan_advances'
p1198
I0
sg39
g5
sg40
F0.0
sg41
F0.0
sS'log_salary'
p1199
F5.2669345623454555
ssS'GAHN ROBERT S'
p1200
(dp1201
g3
g5
sg4
I73122
sS'log_deferred_income'
p1202
F3.0178677189635055
sg7
I50080
sS'log_expenses'
p1203
F4.699664320202373
sg9
I00
sg10
I-1042
sg11
g5
sg13
g5
sS'log_total_payments'
p1204
F5.954524709147589
sS'log_restricted_stock'
p1205
F5.371751107340286
sS'log_exercised_stock_options'
p1206
F4.9203164191257915
sg17
g5
sg18
g5
sg19
g5
sg20
g5
sg21
I76547
sS'log_total_stock_value'
p1207
F5.50325531329806
sS'log_other'
p1208
F4.883928174668814
sS'log_long_term_incentive'
p1209
I0
sg25
g5
sS'log_bonus'
p1210
F5.707459459471399
sg27
I509870
sS'log_deferral_payments'
p1211
F4.8640480615152315
sg29
I318607
sg30
g5
sg31
F0.0
sg32
g5
sg33
I235370
sg34
I192008
sS'log_restricted_stock_deferred'
p1212
I0
sS'log_director_fees'
p1213
I0
sg37
I900585
sS'log_loan_advances'
p1214
I0
sg39
I83237
sg40
F0.0
sg41
F0.0
sS'log_salary'
p1215
F5.28331932392998
ssS'MCCLELLAN GEORGE'
p1216
(dp1217
g3
I1744
sg4
g5
sS'log_deferred_income'
p1218
F5.096910013008055
sg7
I228763
sS'log_expenses'
p1219
F5.359385783253646
sg9
I00
sg10
I-125000
sg11
S'george.mcclellan@enron.com'
p1220
sg13
g5
sS'log_total_payments'
p1221
F6.120166753817454
sS'log_restricted_stock'
p1222
F5.644533119474612
sS'log_exercised_stock_options'
p1223
F5.704806612462857
sg17
g5
sg18
I1469
sg19
g5
sg20
I49
sg21
I51587
sS'log_total_stock_value'
p1224
F5.976744654469867
sS'log_other'
p1225
F4.712540272565516
sS'log_long_term_incentive'
p1226
I0
sg25
g5
sS'log_bonus'
p1227
F5.954242509439324
sg27
I900000
sS'log_deferral_payments'
p1228
I0
sg29
I947861
sg30
I52
sg31
F0.0
sg32
I0
sg33
I441096
sg34
I263413
sS'log_restricted_stock_deferred'
p1229
I0
sS'log_director_fees'
p1230
I0
sg37
I1318763
sS'log_loan_advances'
p1231
I0
sg39
I506765
sg40
F0.8423165137614679
sg41
F0.02981651376146789
sS'log_salary'
p1232
F5.420637204524571
ssS'HERMANN ROBERT J'
p1233
(dp1234
g3
g5
sg4
g5
sS'log_deferred_income'
p1235
F5.4471580313422185
sg7
I48357
sS'log_expenses'
p1236
F4.6844593500080185
sg9
I00
sg10
I-280000
sg11
S'robert.hermann@enron.com'
p1237
sg13
I150000
sS'log_total_payments'
p1238
F6.11309431238612
sS'log_restricted_stock'
p1239
F5.681812682324669
sS'log_exercised_stock_options'
p1240
F5.273001272063738
sg17
g5
sg18
g5
sg19
g5
sg20
g5
sg21
I416441
sS'log_total_stock_value'
p1241
F5.824862272667649
sS'log_other'
p1242
F5.619553480678065
sS'log_long_term_incentive'
p1243
F5.1760912590556805
sg25
g5
sS'log_bonus'
p1244
F5.845098040014256
sg27
I700000
sS'log_deferral_payments'
p1245
I0
sg29
I668132
sg30
g5
sg31
F0.0
sg32
g5
sg33
I480632
sg34
I262663
sS'log_restricted_stock_deferred'
p1246
I0
sS'log_director_fees'
p1247
I0
sg37
I1297461
sS'log_loan_advances'
p1248
I0
sg39
I187500
sg40
F0.0
sg41
F0.0
sS'log_salary'
p1249
F5.419398900241155
ssS'SCRIMSHAW MATTHEW'
p1250
(dp1251
g3
g5
sg4
g5
sS'log_deferred_income'
p1252
I0
sg7
g5
sS'log_expenses'
p1253
I0
sg9
I00
sg10
g5
sg11
S'matthew.scrimshaw@enron.com'
p1254
sg13
g5
sS'log_total_payments'
p1255
I0
sS'log_restricted_stock'
p1256
I0
sS'log_exercised_stock_options'
p1257
F5.880560370505058
sg17
g5
sg18
g5
sg19
g5
sg20
g5
sg21
g5
sS'log_total_stock_value'
p1258
F5.880560370505058
sS'log_other'
p1259
I0
sS'log_long_term_incentive'
p1260
I0
sg25
g5
sS'log_bonus'
p1261
I0
sg27
g5
sS'log_deferral_payments'
p1262
I0
sg29
I759557
sg30
g5
sg31
F0.0
sg32
g5
sg33
g5
sg34
g5
sS'log_restricted_stock_deferred'
p1263
I0
sS'log_director_fees'
p1264
I0
sg37
g5
sS'log_loan_advances'
p1265
I0
sg39
I759557
sg40
F0.0
sg41
F0.0
sS'log_salary'
p1266
I0
ssS'GATHMANN WILLIAM D'
p1267
(dp1268
g3
g5
sg4
g5
sS'log_deferred_income'
p1269
I0
sg7
g5
sS'log_expenses'
p1270
I0
sg9
I00
sg10
g5
sg11
g5
sg13
g5
sS'log_total_payments'
p1271
I0
sS'log_restricted_stock'
p1272
F5.421625312056429
sS'log_exercised_stock_options'
p1273
F6.243971646220315
sg17
I-72419
sg18
g5
sg19
g5
sg20
g5
sg21
g5
sS'log_total_stock_value'
p1274
F6.28899998177804
sS'log_other'
p1275
I0
sS'log_long_term_incentive'
p1276
I0
sg25
g5
sS'log_bonus'
p1277
I0
sg27
g5
sS'log_deferral_payments'
p1278
I0
sg29
I1945360
sg30
g5
sg31
F0.0
sg32
g5
sg33
I264013
sg34
g5
sS'log_restricted_stock_deferred'
p1279
F4.859852523553619
sS'log_director_fees'
p1280
I0
sg37
g5
sS'log_loan_advances'
p1281
I0
sg39
I1753766
sg40
F0.0
sg41
F0.0
sS'log_salary'
p1282
I0
ssS'HAEDICKE MARK E'
p1283
(dp1284
g3
I4009
sg4
I2157527
sS'log_deferred_income'
p1285
F5.970571869897625
sg7
I76169
sS'log_expenses'
p1286
F4.881778253908564
sg9
I00
sg10
I-934484
sg11
S'mark.haedicke@enron.com'
p1287
sg13
I983346
sS'log_total_payments'
p1288
F6.586482093653952
sS'log_restricted_stock'
p1289
F5.719471332659714
sS'log_exercised_stock_options'
p1290
F5.784438974222691
sg17
I-329825
sg18
I1847
sg19
g5
sg20
I1941
sg21
I52382
sS'log_total_stock_value'
p1291
F5.904766381258822
sS'log_other'
p1292
F4.719182076227086
sS'log_long_term_incentive'
p1293
F5.99270635552427
sg25
g5
sS'log_bonus'
p1294
F6.060697840353611
sg27
I1150000
sS'log_deferral_payments'
p1295
F6.333956239324738
sg29
I803094
sg30
I180
sg31
F0.03142709943328181
sg32
I61
sg33
I524169
sg34
I374125
sS'log_restricted_stock_deferred'
p1296
F5.518283571110062
sS'log_director_fees'
p1297
I0
sg37
I3859065
sS'log_loan_advances'
p1298
I0
sg39
I608750
sg40
F0.4607133948615615
sg41
F0.04489897730107259
sS'log_salary'
p1299
F5.573016729848248
ssS'BOWEN JR RAYMOND M'
p1300
(dp1301
g3
I1858
sg4
g5
sS'log_deferred_income'
p1302
F2.9206450014067875
sg7
I65907
sS'log_expenses'
p1303
F4.818931543576175
sg9
I01
sg10
I-833
sg11
S'raymond.bowen@enron.com'
p1304
sg13
I974293
sS'log_total_payments'
p1305
F6.426444404146757
sS'log_restricted_stock'
p1306
F5.40149531693335
sS'log_exercised_stock_options'
p1307
I0
sg17
g5
sg18
I1593
sg19
g5
sg20
I27
sg21
I1621
sS'log_total_stock_value'
p1308
F5.40149531693335
sS'log_other'
p1309
F3.2097830148485147
sS'log_long_term_incentive'
p1310
F5.988689582286761
sg25
g5
sS'log_bonus'
p1311
F6.130333768495006
sg27
I1350000
sS'log_deferral_payments'
p1312
I0
sg29
I252055
sg30
I140
sg31
F0.5555555555555556
sg32
I15
sg33
I252055
sg34
I278601
sS'log_restricted_stock_deferred'
p1313
I0
sS'log_director_fees'
p1314
I0
sg37
I2669589
sS'log_loan_advances'
p1315
I0
sg39
g5
sg40
F0.8573735199138859
sg41
F0.07534983853606028
sS'log_salary'
p1316
F5.444982670931098
ssS'GILLIS JOHN'
p1317
(dp1318
g3
g5
sg4
g5
sS'log_deferred_income'
p1319
I0
sg7
g5
sS'log_expenses'
p1320
I0
sg9
I00
sg10
g5
sg11
g5
sg13
g5
sS'log_total_payments'
p1321
I0
sS'log_restricted_stock'
p1322
F4.87988687126544
sS'log_exercised_stock_options'
p1323
F3.99135900263795
sg17
g5
sg18
g5
sg19
g5
sg20
g5
sg21
g5
sS'log_total_stock_value'
p1324
F4.932681729756758
sS'log_other'
p1325
I0
sS'log_long_term_incentive'
p1326
I0
sg25
g5
sS'log_bonus'
p1327
I0
sg27
g5
sS'log_deferral_payments'
p1328
I0
sg29
I85641
sg30
g5
sg31
F0.0
sg32
g5
sg33
I75838
sg34
g5
sS'log_restricted_stock_deferred'
p1329
I0
sS'log_director_fees'
p1330
I0
sg37
g5
sS'log_loan_advances'
p1331
I0
sg39
I9803
sg40
F0.0
sg41
F0.0
sS'log_salary'
p1332
I0
ssS'FITZGERALD JAY L'
p1333
(dp1334
g3
I936
sg4
g5
sS'log_deferred_income'
p1335
I0
sg7
I23870
sS'log_expenses'
p1336
F4.3778524190067545
sg9
I00
sg10
g5
sg11
S'jay.fitzgerald@enron.com'
p1337
sg13
I556416
sS'log_total_payments'
p1338
F6.150712547811371
sS'log_restricted_stock'
p1339
F5.980809818918693
sS'log_exercised_stock_options'
p1340
F5.822469495464077
sg17
g5
sg18
I723
sg19
g5
sg20
I16
sg21
I285414
sS'log_total_stock_value'
p1341
F6.20984623880748
sS'log_other'
p1342
F5.455475272119989
sS'log_long_term_incentive'
p1343
F5.745399609838705
sg25
g5
sS'log_bonus'
p1344
F5.544068044350275
sg27
I350000
sS'log_deferral_payments'
p1345
I0
sg29
I1621236
sg30
I1
sg31
F0.5
sg32
I8
sg33
I956775
sg34
I199157
sS'log_restricted_stock_deferred'
p1346
I0
sS'log_director_fees'
p1347
I0
sg37
I1414857
sS'log_loan_advances'
p1348
I0
sg39
I664461
sg40
F0.7724358974358975
sg41
F0.0010683760683760685
sS'log_salary'
p1349
F5.29919557566097
ssS'MORAN MICHAEL P'
p1350
(dp1351
g3
I672
sg4
g5
sS'log_deferred_income'
p1352
I0
sg7
g5
sS'log_expenses'
p1353
I0
sg9
I00
sg10
g5
sg11
S'michael.moran@enron.com'
p1354
sg13
g5
sS'log_total_payments'
p1355
I0
sS'log_restricted_stock'
p1356
F5.208446731337013
sS'log_exercised_stock_options'
p1357
F4.774801536086167
sg17
g5
sg18
I127
sg19
g5
sg20
I19
sg21
g5
sS'log_total_stock_value'
p1358
F5.344669269141421
sS'log_other'
p1359
I0
sS'log_long_term_incentive'
p1360
I0
sg25
g5
sS'log_bonus'
p1361
I0
sg27
g5
sS'log_deferral_payments'
p1362
I0
sg29
I221141
sg30
I0
sg31
F0.0
sg32
I0
sg33
I161602
sg34
g5
sS'log_restricted_stock_deferred'
p1363
I0
sS'log_director_fees'
p1364
I0
sg37
g5
sS'log_loan_advances'
p1365
I0
sg39
I59539
sg40
F0.18898809523809523
sg41
F0.0
sS'log_salary'
p1366
I0
ssS'REDMOND BRIAN L'
p1367
(dp1368
g3
I1671
sg4
g5
sS'log_deferred_income'
p1369
I0
sg7
I14689
sS'log_expenses'
p1370
F4.166992230830109
sg9
I00
sg10
g5
sg11
S'brian.redmond@enron.com'
p1371
sg13
g5
sS'log_total_payments'
p1372
F5.047387808212916
sS'log_restricted_stock'
p1373
F5.581249720182226
sS'log_exercised_stock_options'
p1374
F6.875584359946584
sg17
g5
sg18
I1063
sg19
g5
sg20
I221
sg21
g5
sS'log_total_stock_value'
p1375
F6.897094836989278
sS'log_other'
p1376
I0
sS'log_long_term_incentive'
p1377
I0
sg25
g5
sS'log_bonus'
p1378
I0
sg27
g5
sS'log_deferral_payments'
p1379
I0
sg29
I7890324
sg30
I204
sg31
F0.22171945701357465
sg32
I49
sg33
I381285
sg34
I96840
sS'log_restricted_stock_deferred'
p1380
I0
sS'log_director_fees'
p1381
I0
sg37
I111529
sS'log_loan_advances'
p1382
I0
sg39
I7509039
sg40
F0.6361460203470976
sg41
F0.12208258527827648
sS'log_salary'
p1383
F4.986054780769694
ssS'BAZELIDES PHILIP J'
p1384
(dp1385
g3
g5
sg4
I684694
sS'log_deferred_income'
p1386
I0
sg7
g5
sS'log_expenses'
p1387
I0
sg9
I00
sg10
g5
sg11
g5
sg13
I93750
sS'log_total_payments'
p1388
F5.934567124941068
sS'log_restricted_stock'
p1389
I0
sS'log_exercised_stock_options'
p1390
F6.204022526897821
sg17
g5
sg18
g5
sg19
g5
sg20
g5
sg21
I874
sS'log_total_stock_value'
p1391
F6.204022526897821
sS'log_other'
p1392
F2.9415114326344027
sS'log_long_term_incentive'
p1393
F4.971971276399756
sg25
g5
sS'log_bonus'
p1394
I0
sg27
g5
sS'log_deferral_payments'
p1395
F5.835496522144653
sg29
I1599641
sg30
g5
sg31
F0.0
sg32
g5
sg33
g5
sg34
I80818
sS'log_restricted_stock_deferred'
p1396
I0
sS'log_director_fees'
p1397
I0
sg37
I860136
sS'log_loan_advances'
p1398
I0
sg39
I1599641
sg40
F0.0
sg41
F0.0
sS'log_salary'
p1399
F4.9075080987704345
ssS'BELDEN TIMOTHY N'
p1400
(dp1401
g3
I7991
sg4
I2144013
sS'log_deferred_income'
p1402
F6.368181599902723
sg7
I17355
sS'log_expenses'
p1403
F4.239424618007431
sg9
I01
sg10
I-2334434
sg11
S'tim.belden@enron.com'
p1404
sg13
g5
sS'log_total_payments'
p1405
F6.740491379517573
sS'log_restricted_stock'
p1406
F5.197470778805727
sS'log_exercised_stock_options'
p1407
F5.979154873183453
sg17
g5
sg18
I5521
sg19
g5
sg20
I484
sg21
I210698
sS'log_total_stock_value'
p1408
F6.045598726911714
sS'log_other'
p1409
F5.323660413191933
sS'log_long_term_incentive'
p1410
I0
sg25
g5
sS'log_bonus'
p1411
F6.72015922068319
sg27
I5249999
sS'log_deferral_payments'
p1412
F6.331227414328171
sg29
I1110705
sg30
I228
sg31
F0.2231404958677686
sg32
I108
sg33
I157569
sg34
I213999
sS'log_restricted_stock_deferred'
p1413
I0
sS'log_director_fees'
p1414
I0
sg37
I5501630
sS'log_loan_advances'
p1415
I0
sg39
I953136
sg40
F0.6909022650481792
sg41
F0.028532098610937303
sS'log_salary'
p1416
F5.330411743930982
ssS'DURAN WILLIAM D'
p1417
(dp1418
g3
I904
sg4
g5
sS'log_deferred_income'
p1419
I0
sg7
I25785
sS'log_expenses'
p1420
F4.411367135742733
sg9
I00
sg10
g5
sg11
S'w.duran@enron.com'
p1421
sg13
I1105218
sS'log_total_payments'
p1422
F6.3208237970310455
sS'log_restricted_stock'
p1423
F5.276556005986421
sS'log_exercised_stock_options'
p1424
F6.161927432380796
sg17
g5
sg18
I599
sg19
g5
sg20
I12
sg21
I1568
sS'log_total_stock_value'
p1425
F6.215084761689746
sS'log_other'
p1426
F3.1953460583484192
sS'log_long_term_incentive'
p1427
F6.0434479493869055
sg25
g5
sS'log_bonus'
p1428
F5.8750612633917
sg27
I750000
sS'log_deferral_payments'
p1429
I0
sg29
I1640910
sg30
I106
sg31
F0.25
sg32
I3
sg33
I189041
sg34
I210692
sS'log_restricted_stock_deferred'
p1430
I0
sS'log_director_fees'
p1431
I0
sg37
I2093263
sS'log_loan_advances'
p1432
I0
sg39
I1451869
sg40
F0.6626106194690266
sg41
F0.1172566371681416
sS'log_salary'
p1433
F5.323648045708644
ssS'THORN TERENCE H'
p1434
(dp1435
g3
I266
sg4
I16586
sS'log_deferred_income'
p1436
I0
sg7
I46145
sS'log_expenses'
p1437
F4.664124650322944
sg9
I00
sg10
g5
sg11
S'terence.thorn@enron.com'
p1438
sg13
I200000
sS'log_total_payments'
p1439
F5.95973427873217
sS'log_restricted_stock'
p1440
F5.562673448975871
sS'log_exercised_stock_options'
p1441
F6.648601587181736
sg17
g5
sg18
I73
sg19
g5
sg20
I41
sg21
I426629
sS'log_total_stock_value'
p1442
F6.682848406714629
sS'log_other'
p1443
F5.630050373176021
sS'log_long_term_incentive'
p1444
F5.301029995663981
sg25
g5
sS'log_bonus'
p1445
I0
sg27
g5
sS'log_deferral_payments'
p1446
F4.219741661046302
sg29
I4817796
sg30
I0
sg31
F0.0
sg32
I0
sg33
I365320
sg34
I222093
sS'log_restricted_stock_deferred'
p1447
I0
sS'log_director_fees'
p1448
I0
sg37
I911453
sS'log_loan_advances'
p1449
I0
sg39
I4452476
sg40
F0.2744360902255639
sg41
F0.0
sS'log_salary'
p1450
F5.346534870528295
ssS'FASTOW ANDREW S'
p1451
(dp1452
g3
g5
sg4
g5
sS'log_deferred_income'
p1453
F6.141780463841865
sg7
I55921
sS'log_expenses'
p1454
F4.74757492902158
sg9
I01
sg10
I-1386055
sg11
S'andrew.fastow@enron.com'
p1455
sg13
I1736055
sS'log_total_payments'
p1456
F6.38454748588405
sS'log_restricted_stock'
p1457
F6.253922164897446
sS'log_exercised_stock_options'
p1458
I0
sg17
g5
sg18
g5
sg19
g5
sg20
g5
sg21
I277464
sS'log_total_stock_value'
p1459
F6.253922164897446
sS'log_other'
p1460
F5.4432066428980725
sS'log_long_term_incentive'
p1461
F6.239563479952299
sg25
g5
sS'log_bonus'
p1462
F6.113943352306836
sg27
I1300000
sS'log_deferral_payments'
p1463
I0
sg29
I1794412
sg30
g5
sg31
F0.0
sg32
g5
sg33
I1794412
sg34
I440698
sS'log_restricted_stock_deferred'
p1464
I0
sS'log_director_fees'
p1465
I0
sg37
I2424083
sS'log_loan_advances'
p1466
I0
sg39
g5
sg40
F0.0
sg41
F0.0
sS'log_salary'
p1467
F5.64414107957519
ssS'FOY JOE'
p1468
(dp1469
g3
I57
sg4
I181755
sS'log_deferred_income'
p1470
I0
sg7
g5
sS'log_expenses'
p1471
I0
sg9
I00
sg10
g5
sg11
S'tracy.foy@enron.com'
p1472
sg13
g5
sS'log_total_payments'
p1473
F5.259486366945331
sS'log_restricted_stock'
p1474
I0
sS'log_exercised_stock_options'
p1475
F5.535843288150006
sg17
g5
sg18
I2
sg19
g5
sg20
I13
sg21
g5
sS'log_total_stock_value'
p1476
F5.535843288150006
sS'log_other'
p1477
I0
sS'log_long_term_incentive'
p1478
I0
sg25
g5
sS'log_bonus'
p1479
I0
sg27
g5
sS'log_deferral_payments'
p1480
F5.259486366945331
sg29
I343434
sg30
I0
sg31
F0.0
sg32
I0
sg33
g5
sg34
g5
sS'log_restricted_stock_deferred'
p1481
I0
sS'log_director_fees'
p1482
I0
sg37
I181755
sS'log_loan_advances'
p1483
I0
sg39
I343434
sg40
F0.03508771929824561
sg41
F0.0
sS'log_salary'
p1484
I0
ssS'CALGER CHRISTOPHER F'
p1485
(dp1486
g3
I2598
sg4
g5
sS'log_deferred_income'
p1487
F5.419129307741975
sg7
I35818
sS'log_expenses'
p1488
F4.5541013321212365
sg9
I01
sg10
I-262500
sg11
S'christopher.calger@enron.com'
p1489
sg13
I375304
sS'log_total_payments'
p1490
F6.21465764409883
sS'log_restricted_stock'
p1491
F5.1004635982512045
sS'log_exercised_stock_options'
p1492
I0
sg17
g5
sg18
I2188
sg19
g5
sg20
I144
sg21
I486
sS'log_total_stock_value'
p1493
F5.1004635982512045
sS'log_other'
p1494
F2.686636269262293
sS'log_long_term_incentive'
p1495
F5.574383193159871
sg25
g5
sS'log_bonus'
p1496
F6.096910013008056
sg27
I1250000
sS'log_deferral_payments'
p1497
I0
sg29
I126027
sg30
I199
sg31
F0.1736111111111111
sg32
I25
sg33
I126027
sg34
I240189
sS'log_restricted_stock_deferred'
p1498
I0
sS'log_director_fees'
p1499
I0
sg37
I1639297
sS'log_loan_advances'
p1500
I0
sg39
g5
sg40
F0.8421862971516552
sg41
F0.07659738260200154
sS'log_salary'
p1501
F5.380553114021543
ssS'RICE KENNETH D'
p1502
(dp1503
g3
I905
sg4
g5
sS'log_deferred_income'
p1504
F6.5446119366619175
sg7
I46950
sS'log_expenses'
p1505
F4.67163559660213
sg9
I01
sg10
I-3504386
sg11
S'ken.rice@enron.com'
p1506
sg13
I1617011
sS'log_total_payments'
p1507
F5.703334375443769
sS'log_restricted_stock'
p1508
F6.439074251212291
sS'log_exercised_stock_options'
p1509
F7.296537405536865
sg17
g5
sg18
I864
sg19
g5
sg20
I18
sg21
I174839
sS'log_total_stock_value'
p1510
F7.353002829704288
sS'log_other'
p1511
F5.242638313856713
sS'log_long_term_incentive'
p1512
F6.208712974280582
sg25
g5
sS'log_bonus'
p1513
F6.2430380486862935
sg27
I1750000
sS'log_deferral_payments'
p1514
I0
sg29
I22542539
sg30
I42
sg31
F0.2222222222222222
sg32
I4
sg33
I2748364
sg34
I420636
sS'log_restricted_stock_deferred'
p1515
I0
sS'log_director_fees'
p1516
I0
sg37
I505050
sS'log_loan_advances'
p1517
I0
sg39
I19794175
sg40
F0.9546961325966851
sg41
F0.04640883977900553
sS'log_salary'
p1518
F5.623906438897825
ssS'KAMINSKI WINCENTY J'
p1519
(dp1520
g3
I4607
sg4
g5
sS'log_deferred_income'
p1521
I0
sg7
I83585
sS'log_expenses'
p1522
F4.922128346796362
sg9
I00
sg10
g5
sg11
S'vince.kaminski@enron.com'
p1523
sg13
I323466
sS'log_total_payments'
p1524
F6.036158021442583
sS'log_restricted_stock'
p1525
F5.1004635982512045
sS'log_exercised_stock_options'
p1526
F5.929424035031084
sg17
g5
sg18
I583
sg19
g5
sg20
I14368
sg21
I4669
sS'log_total_stock_value'
p1527
F5.989466281387238
sS'log_other'
p1528
F3.6692238739308056
sS'log_long_term_incentive'
p1529
F5.509828638054498
sg25
g5
sS'log_bonus'
p1530
F5.602059991327962
sg27
I400000
sS'log_deferral_payments'
p1531
I0
sg29
I976037
sg30
I41
sg31
F0.011901447661469933
sg32
I171
sg33
I126027
sg34
I275101
sS'log_restricted_stock_deferred'
p1532
I0
sS'log_director_fees'
p1533
I0
sg37
I1086821
sS'log_loan_advances'
p1534
I0
sg39
I850010
sg40
F0.1265465595832429
sg41
F0.008899500759713479
sS'log_salary'
p1535
F5.439492169065411
ssS'COX DAVID'
p1536
(dp1537
g3
I102
sg4
g5
sS'log_deferred_income'
p1538
F4.615423952885943
sg7
I27861
sS'log_expenses'
p1539
F4.444996700267695
sg9
I00
sg10
I-41250
sg11
S'chip.cox@enron.com'
p1540
sg13
g5
sS'log_total_payments'
p1541
F6.04194231195729
sS'log_restricted_stock'
p1542
F5.577586001650403
sS'log_exercised_stock_options'
p1543
F5.070226327996344
sg17
g5
sg18
I71
sg19
g5
sg20
I33
sg21
I494
sS'log_total_stock_value'
p1544
F5.695160214654749
sS'log_other'
p1545
F2.6937269489236466
sS'log_long_term_incentive'
p1546
I0
sg25
g5
sS'log_bonus'
p1547
F5.903089986991943
sg27
I800000
sS'log_deferral_payments'
p1548
I0
sg29
I495633
sg30
I0
sg31
F0.12121212121212122
sg32
I4
sg33
I378082
sg34
I314288
sS'log_restricted_stock_deferred'
p1549
I0
sS'log_director_fees'
p1550
I0
sg37
I1101393
sS'log_loan_advances'
p1551
I0
sg39
I117551
sg40
F0.696078431372549
sg41
F0.0
sS'log_salary'
p1552
F5.497327799301786
ssS'OVERDYKE JR JERE C'
p1553
(dp1554
g3
g5
sg4
g5
sS'log_deferred_income'
p1555
I0
sg7
I18834
sS'log_expenses'
p1556
F4.274942566083686
sg9
I00
sg10
g5
sg11
S'jere.overdyke@enron.com'
p1557
sg13
I135836
sS'log_total_payments'
p1558
F5.397569832055815
sS'log_restricted_stock'
p1559
F6.309846409265053
sS'log_exercised_stock_options'
p1560
F6.721528520633201
sg17
g5
sg18
g5
sg19
g5
sg20
g5
sg21
I176
sS'log_total_stock_value'
p1561
F6.86377441053905
sS'log_other'
p1562
F2.2455126678141495
sS'log_long_term_incentive'
p1563
F5.133014884299281
sg25
g5
sS'log_bonus'
p1564
I0
sg27
g5
sS'log_deferral_payments'
p1565
I0
sg29
I7307594
sg30
g5
sg31
F0.0
sg32
g5
sg33
I2041016
sg34
I94941
sS'log_restricted_stock_deferred'
p1566
I0
sS'log_director_fees'
p1567
I0
sg37
I249787
sS'log_loan_advances'
p1568
I0
sg39
I5266578
sg40
F0.0
sg41
F0.0
sS'log_salary'
p1569
F4.977453801768213
ssS'PEREIRA PAULO V. FERRAZ'
p1570
(dp1571
g3
g5
sg4
g5
sS'log_deferred_income'
p1572
F5.005395031886706
sg7
I27942
sS'log_expenses'
p1573
F4.446257488316374
sg9
I00
sg10
I-101250
sg11
g5
sg13
g5
sS'log_total_payments'
p1574
F4.446257488316374
sS'log_restricted_stock'
p1575
I0
sS'log_exercised_stock_options'
p1576
I0
sg17
g5
sg18
g5
sg19
g5
sg20
g5
sg21
g5
sS'log_total_stock_value'
p1577
I0
sS'log_other'
p1578
I0
sS'log_long_term_incentive'
p1579
I0
sg25
I101250
sS'log_bonus'
p1580
I0
sg27
g5
sS'log_deferral_payments'
p1581
I0
sg29
g5
sg30
g5
sg31
F0.0
sg32
g5
sg33
g5
sg34
g5
sS'log_restricted_stock_deferred'
p1582
I0
sS'log_director_fees'
p1583
F5.005395031886706
sg37
I27942
sS'log_loan_advances'
p1584
I0
sg39
g5
sg40
F0.0
sg41
F0.0
sS'log_salary'
p1585
I0
ssS'STABLER FRANK'
p1586
(dp1587
g3
g5
sg4
g5
sS'log_deferred_income'
p1588
I0
sg7
I16514
sS'log_expenses'
p1589
F4.217852280259893
sg9
I00
sg10
g5
sg11
S'frank.stabler@enron.com'
p1590
sg13
g5
sS'log_total_payments'
p1591
F6.046138763992402
sS'log_restricted_stock'
p1592
F5.709044272789669
sS'log_exercised_stock_options'
p1593
I0
sg17
g5
sg18
g5
sg19
g5
sg20
g5
sg21
I356071
sS'log_total_stock_value'
p1594
F5.709044272789669
sS'log_other'
p1595
F5.551536604247579
sS'log_long_term_incentive'
p1596
I0
sg25
g5
sS'log_bonus'
p1597
F5.698970004336018
sg27
I500000
sS'log_deferral_payments'
p1598
I0
sg29
I511734
sg30
g5
sg31
F0.0
sg32
g5
sg33
I511734
sg34
I239502
sS'log_restricted_stock_deferred'
p1599
I0
sS'log_director_fees'
p1600
I0
sg37
I1112087
sS'log_loan_advances'
p1601
I0
sg39
g5
sg40
F0.0
sg41
F0.0
sS'log_salary'
p1602
F5.379309144411697
ssS'SKILLING JEFFREY K'
p1603
(dp1604
g3
I3627
sg4
g5
sS'log_deferred_income'
p1605
I0
sg7
I29336
sS'log_expenses'
p1606
F4.467400896952546
sg9
I01
sg10
g5
sg11
S'jeff.skilling@enron.com'
p1607
sg13
I1920000
sS'log_total_payments'
p1608
F6.938655596064717
sS'log_restricted_stock'
p1609
F6.835289186724759
sS'log_exercised_stock_options'
p1610
F7.284430733844519
sg17
g5
sg18
I2042
sg19
g5
sg20
I108
sg21
I22122
sS'log_total_stock_value'
p1611
F7.416535198959328
sS'log_other'
p1612
F4.3448243879897595
sS'log_long_term_incentive'
p1613
F6.283301228703549
sg25
g5
sS'log_bonus'
p1614
F6.7481880270062
sg27
I5600000
sS'log_deferral_payments'
p1615
I0
sg29
I26093672
sg30
I88
sg31
F0.2777777777777778
sg32
I30
sg33
I6843672
sg34
I1111258
sS'log_restricted_stock_deferred'
p1616
I0
sS'log_director_fees'
p1617
I0
sg37
I8682716
sS'log_loan_advances'
p1618
I0
sg39
I19250000
sg40
F0.5629997242900469
sg41
F0.0242624758753791
sS'log_salary'
p1619
F6.045814900496469
ssS'BLAKE JR. NORMAN P'
p1620
(dp1621
g3
g5
sg4
g5
sS'log_deferred_income'
p1622
F5.056081197030562
sg7
I1279
sS'log_expenses'
p1623
F3.106870544478654
sg9
I00
sg10
I-113784
sg11
g5
sg13
g5
sS'log_total_payments'
p1624
F3.106870544478654
sS'log_restricted_stock'
p1625
I0
sS'log_exercised_stock_options'
p1626
I0
sg17
g5
sg18
g5
sg19
g5
sg20
g5
sg21
g5
sS'log_total_stock_value'
p1627
I0
sS'log_other'
p1628
I0
sS'log_long_term_incentive'
p1629
I0
sg25
I113784
sS'log_bonus'
p1630
I0
sg27
g5
sS'log_deferral_payments'
p1631
I0
sg29
g5
sg30
g5
sg31
F0.0
sg32
g5
sg33
g5
sg34
g5
sS'log_restricted_stock_deferred'
p1632
I0
sS'log_director_fees'
p1633
F5.056081197030562
sg37
I1279
sS'log_loan_advances'
p1634
I0
sg39
g5
sg40
F0.0
sg41
F0.0
sS'log_salary'
p1635
I0
ssS'SHERRICK JEFFREY B'
p1636
(dp1637
g3
I613
sg4
g5
sS'log_deferred_income'
p1638
I0
sg7
g5
sS'log_expenses'
p1639
I0
sg9
I00
sg10
g5
sg11
S'jeffrey.sherrick@enron.com'
p1640
sg13
g5
sS'log_total_payments'
p1641
I0
sS'log_restricted_stock'
p1642
F5.608524963885034
sS'log_exercised_stock_options'
p1643
F6.154262338015367
sg17
g5
sg18
I583
sg19
g5
sg20
I25
sg21
g5
sS'log_total_stock_value'
p1644
F6.263036399386964
sS'log_other'
p1645
I0
sS'log_long_term_incentive'
p1646
I0
sg25
g5
sS'log_bonus'
p1647
I0
sg27
g5
sS'log_deferral_payments'
p1648
I0
sg29
I1832468
sg30
I39
sg31
F0.72
sg32
I18
sg33
I405999
sg34
g5
sS'log_restricted_stock_deferred'
p1649
I0
sS'log_director_fees'
p1650
I0
sg37
g5
sS'log_loan_advances'
p1651
I0
sg39
I1426469
sg40
F0.9510603588907015
sg41
F0.0636215334420881
sS'log_salary'
p1652
I0
ssS'PRENTICE JAMES'
p1653
(dp1654
g3
g5
sg4
I564348
sS'log_deferred_income'
p1655
I0
sg7
g5
sS'log_expenses'
p1656
I0
sg9
I00
sg10
g5
sg11
S'james.prentice@enron.com'
p1657
sg13
g5
sS'log_total_payments'
p1658
F5.751546990281708
sS'log_restricted_stock'
p1659
F5.319749213516533
sS'log_exercised_stock_options'
p1660
F5.947546937405668
sg17
g5
sg18
g5
sg19
g5
sg20
g5
sg21
g5
sS'log_total_stock_value'
p1661
F6.039429983524987
sS'log_other'
p1662
I0
sS'log_long_term_incentive'
p1663
I0
sg25
g5
sS'log_bonus'
p1664
I0
sg27
g5
sS'log_deferral_payments'
p1665
F5.751546990281708
sg29
I1095040
sg30
g5
sg31
F0.0
sg32
g5
sg33
I208809
sg34
g5
sS'log_restricted_stock_deferred'
p1666
I0
sS'log_director_fees'
p1667
I0
sg37
I564348
sS'log_loan_advances'
p1668
I0
sg39
I886231
sg40
F0.0
sg41
F0.0
sS'log_salary'
p1669
I0
ssS'GRAY RODNEY'
p1670
(dp1671
g3
g5
sg4
I93585
sS'log_deferred_income'
p1672
I0
sg7
g5
sS'log_expenses'
p1673
I0
sg9
I00
sg10
g5
sg11
g5
sg13
I365625
sS'log_total_payments'
p1674
F6.059433905381169
sS'log_restricted_stock'
p1675
I0
sS'log_exercised_stock_options'
p1676
I0
sg17
g5
sg18
g5
sg19
g5
sg20
g5
sg21
I680833
sS'log_total_stock_value'
p1677
I0
sS'log_other'
p1678
F5.83304059785586
sS'log_long_term_incentive'
p1679
F5.563035883426255
sg25
g5
sS'log_bonus'
p1680
I0
sg27
g5
sS'log_deferral_payments'
p1681
F4.971206244686043
sg29
g5
sg30
g5
sg31
F0.0
sg32
g5
sg33
g5
sg34
I6615
sS'log_restricted_stock_deferred'
p1682
I0
sS'log_director_fees'
p1683
I0
sg37
I1146658
sS'log_loan_advances'
p1684
I0
sg39
g5
sg40
F0.0
sg41
F0.0
sS'log_salary'
p1685
F3.820529848523519
ssS'PICKERING MARK R'
p1686
(dp1687
g3
I898
sg4
g5
sS'log_deferred_income'
p1688
I0
sg7
I31653
sS'log_expenses'
p1689
F4.500414877756267
sg9
I00
sg10
g5
sg11
S'mark.pickering@enron.com'
p1690
sg13
g5
sS'log_total_payments'
p1691
F6.1419793836854355
sS'log_restricted_stock'
p1692
I0
sS'log_exercised_stock_options'
p1693
F4.459362327372961
sg17
g5
sg18
I728
sg19
I400000
sg20
I67
sg21
g5
sS'log_total_stock_value'
p1694
F4.459362327372961
sS'log_other'
p1695
I0
sS'log_long_term_incentive'
p1696
I0
sg25
g5
sS'log_bonus'
p1697
F5.477121254719662
sg27
I300000
sS'log_deferral_payments'
p1698
I0
sg29
I28798
sg30
I7
sg31
F0.0
sg32
I0
sg33
g5
sg34
I655037
sS'log_restricted_stock_deferred'
p1699
I0
sS'log_director_fees'
p1700
I0
sg37
I1386690
sS'log_loan_advances'
p1701
F5.602059991327962
sg39
I28798
sg40
F0.8106904231625836
sg41
F0.0077951002227171495
sS'log_salary'
p1702
F5.816265831964292
ssS'NOLES JAMES L'
p1703
(dp1704
g3
g5
sg4
I774401
sS'log_deferred_income'
p1705
I0
sg7
g5
sS'log_expenses'
p1706
I0
sg9
I00
sg10
g5
sg11
g5
sg13
g5
sS'log_total_payments'
p1707
F5.88896590511413
sS'log_restricted_stock'
p1708
F5.665825740311676
sS'log_exercised_stock_options'
p1709
I0
sg17
I-94556
sg18
g5
sg19
g5
sg20
g5
sg21
g5
sS'log_total_stock_value'
p1710
F5.566679027103501
sS'log_other'
p1711
I0
sS'log_long_term_incentive'
p1712
I0
sg25
g5
sS'log_bonus'
p1713
I0
sg27
g5
sS'log_deferral_payments'
p1714
F5.88896590511413
sg29
I368705
sg30
g5
sg31
F0.0
sg32
g5
sg33
I463261
sg34
g5
sS'log_restricted_stock_deferred'
p1715
F4.97568909197763
sS'log_director_fees'
p1716
I0
sg37
I774401
sS'log_loan_advances'
p1717
I0
sg39
g5
sg40
F0.0
sg41
F0.0
sS'log_salary'
p1718
I0
ssS'KEAN STEVEN J'
p1719
(dp1720
g3
I12754
sg4
g5
sS'log_deferred_income'
p1721
I0
sg7
I41953
sS'log_expenses'
p1722
F4.622763022062475
sg9
I00
sg10
g5
sg11
S'steven.kean@enron.com'
p1723
sg13
I300000
sS'log_total_payments'
p1724
F6.242422651896093
sS'log_restricted_stock'
p1725
F6.616117638059882
sS'log_exercised_stock_options'
p1726
F6.305791460793905
sg17
g5
sg18
I3639
sg19
g5
sg20
I6759
sg21
I1231
sS'log_total_stock_value'
p1727
F6.789132226726676
sS'log_other'
p1728
F3.090258052931316
sS'log_long_term_incentive'
p1729
F5.477121254719662
sg25
g5
sS'log_bonus'
p1730
F5.999999999999999
sg27
I1000000
sS'log_deferral_payments'
p1731
I0
sg29
I6153642
sg30
I140
sg31
F0.05725699067909454
sg32
I387
sg33
I4131594
sg34
I404338
sS'log_restricted_stock_deferred'
p1732
I0
sS'log_director_fees'
p1733
I0
sg37
I1747522
sS'log_loan_advances'
p1734
I0
sg39
I2022048
sg40
F0.2853222518425592
sg41
F0.010976948408342482
sS'log_salary'
p1735
F5.606744558585211
ssS'FOWLER PEGGY'
p1736
(dp1737
g3
I517
sg4
g5
sS'log_deferred_income'
p1738
I0
sg7
g5
sS'log_expenses'
p1739
I0
sg9
I00
sg10
g5
sg11
S'kulvinder.fowler@enron.com'
p1740
sg13
g5
sS'log_total_payments'
p1741
I0
sS'log_restricted_stock'
p1742
F5.748319846395204
sS'log_exercised_stock_options'
p1743
F6.12207753754618
sg17
g5
sg18
I10
sg19
g5
sg20
I36
sg21
g5
sS'log_total_stock_value'
p1744
F6.2752532911330094
sS'log_other'
p1745
I0
sS'log_long_term_incentive'
p1746
I0
sg25
g5
sS'log_bonus'
p1747
I0
sg27
g5
sS'log_deferral_payments'
p1748
I0
sg29
I1884748
sg30
I0
sg31
F0.0
sg32
I0
sg33
I560170
sg34
g5
sS'log_restricted_stock_deferred'
p1749
I0
sS'log_director_fees'
p1750
I0
sg37
g5
sS'log_loan_advances'
p1751
I0
sg39
I1324578
sg40
F0.019342359767891684
sg41
F0.0
sS'log_salary'
p1752
I0
ssS'WASAFF GEORGE'
p1753
(dp1754
g3
I400
sg4
I831299
sS'log_deferred_income'
p1755
F5.765910589715431
sg7
g5
sS'log_expenses'
p1756
I0
sg9
I00
sg10
I-583325
sg11
S'george.wasaff@enron.com'
p1757
sg13
I200000
sS'log_total_payments'
p1758
F6.014686412609327
sS'log_restricted_stock'
p1759
F5.589018611095901
sS'log_exercised_stock_options'
p1760
F6.222263736808768
sg17
g5
sg18
I337
sg19
g5
sg20
I30
sg21
I1425
sS'log_total_stock_value'
p1761
F6.313113297331755
sS'log_other'
p1762
F3.153814864344529
sS'log_long_term_incentive'
p1763
F5.301029995663981
sg25
g5
sS'log_bonus'
p1764
F5.5118833609788735
sg27
I325000
sS'log_deferral_payments'
p1765
F5.919757258073476
sg29
I2056427
sg30
I22
sg31
F0.23333333333333334
sg32
I7
sg33
I388167
sg34
I259996
sS'log_restricted_stock_deferred'
p1766
I0
sS'log_director_fees'
p1767
I0
sg37
I1034395
sS'log_loan_advances'
p1768
I0
sg39
I1668260
sg40
F0.8425
sg41
F0.055
sS'log_salary'
p1769
F5.414966666465854
ssS'WHITE JR THOMAS E'
p1770
(dp1771
g3
g5
sg4
g5
sS'log_deferred_income'
p1772
I0
sg7
I81353
sS'log_expenses'
p1773
F4.910373572754409
sg9
I00
sg10
g5
sg11
S'thomas.white@enron.com'
p1774
sg13
g5
sS'log_total_payments'
p1775
F6.286537078459592
sS'log_restricted_stock'
p1776
F7.141358013118585
sS'log_exercised_stock_options'
p1777
F6.112956383198683
sg17
g5
sg18
g5
sg19
g5
sg20
g5
sg21
I1085463
sS'log_total_stock_value'
p1778
F7.180244128293586
sS'log_other'
p1779
F6.035615024317664
sS'log_long_term_incentive'
p1780
I0
sg25
g5
sS'log_bonus'
p1781
F5.653212513775343
sg27
I450000
sS'log_deferral_payments'
p1782
I0
sg29
I15144123
sg30
g5
sg31
F0.0
sg32
g5
sg33
I13847074
sg34
I317543
sS'log_restricted_stock_deferred'
p1783
I0
sS'log_director_fees'
p1784
I0
sg37
I1934359
sS'log_loan_advances'
p1785
I0
sg39
I1297049
sg40
F0.0
sg41
F0.0
sS'log_salary'
p1786
F5.501802543480758
ssS'CHRISTODOULOU DIOMEDES'
p1787
(dp1788
g3
g5
sg4
g5
sS'log_deferred_income'
p1789
I0
sg7
g5
sS'log_expenses'
p1790
I0
sg9
I00
sg10
g5
sg11
S'diomedes.christodoulou@enron.com'
p1791
sg13
g5
sS'log_total_payments'
p1792
I0
sS'log_restricted_stock'
p1793
F5.9780571981583
sS'log_exercised_stock_options'
p1794
F6.7098764468781145
sg17
g5
sg18
g5
sg19
g5
sg20
g5
sg21
g5
sS'log_total_stock_value'
p1795
F6.783752478511625
sS'log_other'
p1796
I0
sS'log_long_term_incentive'
p1797
I0
sg25
g5
sS'log_bonus'
p1798
I0
sg27
g5
sS'log_deferral_payments'
p1799
I0
sg29
I6077885
sg30
g5
sg31
F0.0
sg32
g5
sg33
I950730
sg34
g5
sS'log_restricted_stock_deferred'
p1800
I0
sS'log_director_fees'
p1801
I0
sg37
g5
sS'log_loan_advances'
p1802
I0
sg39
I5127155
sg40
F0.0
sg41
F0.0
sS'log_salary'
p1803
I0
ssS'ALLEN PHILLIP K'
p1804
(dp1805
g3
I2902
sg4
I2869717
sS'log_deferred_income'
p1806
F6.488699450989224
sg7
I13868
sS'log_expenses'
p1807
F4.142013832984358
sg9
I00
sg10
I-3081055
sg11
S'phillip.allen@enron.com'
p1808
sg13
I304805
sS'log_total_payments'
p1809
F6.6517084113941
sS'log_restricted_stock'
p1810
F5.1004635982512045
sS'log_exercised_stock_options'
p1811
F6.237930861732111
sg17
I-126027
sg18
I1407
sg19
g5
sg20
I2195
sg21
I152
sS'log_total_stock_value'
p1812
F6.237930861732111
sS'log_other'
p1813
F2.181843587944772
sS'log_long_term_incentive'
p1814
F5.484022086862441
sg25
g5
sS'log_bonus'
p1815
F6.62065647981962
sg27
I4175000
sS'log_deferral_payments'
p1816
F6.457839070462773
sg29
I1729541
sg30
I47
sg31
F0.029612756264236904
sg32
I65
sg33
I126027
sg34
I201955
sS'log_restricted_stock_deferred'
p1817
F5.1004635982512045
sS'log_director_fees'
p1818
I0
sg37
I4484442
sS'log_loan_advances'
p1819
I0
sg39
I1729541
sg40
F0.4848380427291523
sg41
F0.016195727084769126
sS'log_salary'
p1820
F5.30525460989783
ssS'SHARP VICTORIA T'
p1821
(dp1822
g3
I3136
sg4
I187469
sS'log_deferred_income'
p1823
I0
sg7
I116337
sS'log_expenses'
p1824
F5.0657178603885615
sg9
I00
sg10
g5
sg11
S'vicki.sharp@enron.com'
p1825
sg13
I422158
sS'log_total_payments'
p1826
F6.197697005355178
sS'log_restricted_stock'
p1827
F5.328508037743332
sS'log_exercised_stock_options'
p1828
F5.448819129085941
sg17
g5
sg18
I2477
sg19
g5
sg20
I136
sg21
I2401
sS'log_total_stock_value'
p1829
F5.69384649532194
sS'log_other'
p1830
F3.380392160057027
sS'log_long_term_incentive'
p1831
F5.6254750236765965
sg25
g5
sS'log_bonus'
p1832
F5.778151250383643
sg27
I600000
sS'log_deferral_payments'
p1833
F5.272929462772997
sg29
I494136
sg30
I24
sg31
F0.04411764705882353
sg32
I6
sg33
I213063
sg34
I248146
sS'log_restricted_stock_deferred'
p1834
I0
sS'log_director_fees'
p1835
I0
sg37
I1576511
sS'log_loan_advances'
p1836
I0
sg39
I281073
sg40
F0.7898596938775511
sg41
F0.007653061224489796
sS'log_salary'
p1837
F5.394707278961394
ssS'JAEDICKE ROBERT'
p1838
(dp1839
g3
g5
sg4
g5
sS'log_deferred_income'
p1840
F4.3979400086720375
sg7
g5
sS'log_expenses'
p1841
I0
sg9
I00
sg10
I-25000
sg11
g5
sg13
g5
sS'log_total_payments'
p1842
F4.922984815708882
sS'log_restricted_stock'
p1843
F4.644369648364129
sS'log_exercised_stock_options'
p1844
F5.635232346239496
sg17
I-44093
sg18
g5
sg19
g5
sg20
g5
sg21
g5
sS'log_total_stock_value'
p1845
F5.635232346239496
sS'log_other'
p1846
I0
sS'log_long_term_incentive'
p1847
I0
sg25
I108750
sS'log_bonus'
p1848
I0
sg27
g5
sS'log_deferral_payments'
p1849
I0
sg29
I431750
sg30
g5
sg31
F0.0
sg32
g5
sg33
I44093
sg34
g5
sS'log_restricted_stock_deferred'
p1850
F4.644369648364129
sS'log_director_fees'
p1851
F5.0364292656266745
sg37
I83750
sS'log_loan_advances'
p1852
I0
sg39
I431750
sg40
F0.0
sg41
F0.0
sS'log_salary'
p1853
I0
ssS'WINOKUR JR. HERBERT S'
p1854
(dp1855
g3
g5
sg4
g5
sS'log_deferred_income'
p1856
F4.3979400086720375
sg7
I1413
sS'log_expenses'
p1857
F3.1501421618485583
sg9
I00
sg10
I-25000
sg11
g5
sg13
g5
sS'log_total_payments'
p1858
F4.929378049015885
sS'log_restricted_stock'
p1859
I0
sS'log_exercised_stock_options'
p1860
I0
sg17
g5
sg18
g5
sg19
g5
sg20
g5
sg21
g5
sS'log_total_stock_value'
p1861
I0
sS'log_other'
p1862
I0
sS'log_long_term_incentive'
p1863
I0
sg25
I108579
sS'log_bonus'
p1864
I0
sg27
g5
sS'log_deferral_payments'
p1865
I0
sg29
g5
sg30
g5
sg31
F0.0
sg32
g5
sg33
g5
sg34
g5
sS'log_restricted_stock_deferred'
p1866
I0
sS'log_director_fees'
p1867
F5.0357458375362585
sg37
I84992
sS'log_loan_advances'
p1868
I0
sg39
g5
sg40
F0.0
sg41
F0.0
sS'log_salary'
p1869
I0
ssS'BROWN MICHAEL'
p1870
(dp1871
g3
I1486
sg4
g5
sS'log_deferred_income'
p1872
I0
sg7
I49288
sS'log_expenses'
p1873
F4.692741195785353
sg9
I00
sg10
g5
sg11
S'michael.brown@enron.com'
p1874
sg13
g5
sS'log_total_payments'
p1875
F4.692741195785353
sS'log_restricted_stock'
p1876
I0
sS'log_exercised_stock_options'
p1877
I0
sg17
g5
sg18
I761
sg19
g5
sg20
I41
sg21
g5
sS'log_total_stock_value'
p1878
I0
sS'log_other'
p1879
I0
sS'log_long_term_incentive'
p1880
I0
sg25
g5
sS'log_bonus'
p1881
I0
sg27
g5
sS'log_deferral_payments'
p1882
I0
sg29
g5
sg30
I13
sg31
F0.024390243902439025
sg32
I1
sg33
g5
sg34
g5
sS'log_restricted_stock_deferred'
p1883
I0
sS'log_director_fees'
p1884
I0
sg37
I49288
sS'log_loan_advances'
p1885
I0
sg39
g5
sg40
F0.5121130551816958
sg41
F0.008748317631224764
sS'log_salary'
p1886
I0
ssS'BADUM JAMES P'
p1887
(dp1888
g3
g5
sg4
I178980
sS'log_deferred_income'
p1889
I0
sg7
I3486
sS'log_expenses'
p1890
F3.542327382773974
sg9
I00
sg10
g5
sg11
g5
sg13
g5
sS'log_total_payments'
p1891
F5.261181951597865
sS'log_restricted_stock'
p1892
I0
sS'log_exercised_stock_options'
p1893
F5.411311550576638
sg17
g5
sg18
g5
sg19
g5
sg20
g5
sg21
g5
sS'log_total_stock_value'
p1894
F5.411311550576638
sS'log_other'
p1895
I0
sS'log_long_term_incentive'
p1896
I0
sg25
g5
sS'log_bonus'
p1897
I0
sg27
g5
sS'log_deferral_payments'
p1898
F5.252804503745706
sg29
I257817
sg30
g5
sg31
F0.0
sg32
g5
sg33
g5
sg34
g5
sS'log_restricted_stock_deferred'
p1899
I0
sS'log_director_fees'
p1900
I0
sg37
I182466
sS'log_loan_advances'
p1901
I0
sg39
I257817
sg40
F0.0
sg41
F0.0
sS'log_salary'
p1902
I0
ssS'HUGHES JAMES A'
p1903
(dp1904
g3
I719
sg4
g5
sS'log_deferred_income'
p1905
I0
sg7
g5
sS'log_expenses'
p1906
I0
sg9
I00
sg10
g5
sg11
S'james.hughes@enron.com'
p1907
sg13
g5
sS'log_total_payments'
p1908
I0
sS'log_restricted_stock'
p1909
F5.560418384108623
sS'log_exercised_stock_options'
p1910
F5.877927393556506
sg17
g5
sg18
I589
sg19
g5
sg20
I34
sg21
g5
sS'log_total_stock_value'
p1911
F6.048594828489337
sS'log_other'
p1912
I0
sS'log_long_term_incentive'
p1913
I0
sg25
g5
sS'log_bonus'
p1914
I0
sg27
g5
sS'log_deferral_payments'
p1915
I0
sg29
I1118394
sg30
I35
sg31
F0.14705882352941177
sg32
I5
sg33
I363428
sg34
g5
sS'log_restricted_stock_deferred'
p1916
I0
sS'log_director_fees'
p1917
I0
sg37
g5
sS'log_loan_advances'
p1918
I0
sg39
I754966
sg40
F0.8191933240611962
sg41
F0.048678720445062586
sS'log_salary'
p1919
I0
ssS'REYNOLDS LAWRENCE'
p1920
(dp1921
g3
g5
sg4
I51365
sS'log_deferred_income'
p1922
F5.301029995663981
sg7
I8409
sS'log_expenses'
p1923
F3.924744352479948
sg9
I00
sg10
I-200000
sg11
g5
sg13
I156250
sS'log_total_payments'
p1924
F5.596019484843068
sS'log_restricted_stock'
p1925
F5.30423840870218
sS'log_exercised_stock_options'
p1926
F6.619163480223427
sg17
I-140264
sg18
g5
sg19
g5
sg20
g5
sg21
I202052
sS'log_total_stock_value'
p1927
F6.625507016581867
sS'log_other'
p1928
F5.305463153638676
sS'log_long_term_incentive'
p1929
F5.1938200260161125
sg25
g5
sS'log_bonus'
p1930
F5.0
sg27
I100000
sS'log_deferral_payments'
p1931
F4.710667292450161
sg29
I4221891
sg30
g5
sg31
F0.0
sg32
g5
sg33
I201483
sg34
I76399
sS'log_restricted_stock_deferred'
p1932
F5.146946219798449
sS'log_director_fees'
p1933
I0
sg37
I394475
sS'log_loan_advances'
p1934
I0
sg39
I4160672
sg40
F0.0
sg41
F0.0
sS'log_salary'
p1935
F4.88308767405574
ssS'DIMICHELE RICHARD G'
p1936
(dp1937
g3
g5
sg4
g5
sS'log_deferred_income'
p1938
I0
sg7
I35812
sS'log_expenses'
p1939
F4.554028575820873
sg9
I00
sg10
g5
sg11
S'richard.dimichele@enron.com'
p1940
sg13
I694862
sS'log_total_payments'
p1941
F6.374409390777228
sS'log_restricted_stock'
p1942
F5.1004635982512045
sS'log_exercised_stock_options'
p1943
F6.91337695489406
sg17
g5
sg18
g5
sg19
g5
sg20
g5
sg21
I374689
sS'log_total_stock_value'
p1944
F6.920007533793074
sS'log_other'
p1945
F5.573670943402245
sS'log_long_term_incentive'
p1946
F5.841898562015383
sg25
g5
sS'log_bonus'
p1947
F5.999999999999999
sg27
I1000000
sS'log_deferral_payments'
p1948
I0
sg29
I8317782
sg30
g5
sg31
F0.0
sg32
g5
sg33
I126027
sg34
I262788
sS'log_restricted_stock_deferred'
p1949
I0
sS'log_director_fees'
p1950
I0
sg37
I2368151
sS'log_loan_advances'
p1951
I0
sg39
I8191755
sg40
F0.0
sg41
F0.0
sS'log_salary'
p1952
F5.41960552963671
ssS'BHATNAGAR SANJAY'
p1953
(dp1954
g3
I523
sg4
g5
sS'log_deferred_income'
p1955
I0
sg7
g5
sS'log_expenses'
p1956
I0
sg9
I00
sg10
g5
sg11
S'sanjay.bhatnagar@enron.com'
p1957
sg13
g5
sS'log_total_payments'
p1958
F7.189105257636261
sS'log_restricted_stock'
p1959
F6.4157226942881405
sS'log_exercised_stock_options'
p1960
F6.4157226942881405
sg17
I15456290
sg18
I463
sg19
g5
sg20
I29
sg21
I137864
sS'log_total_stock_value'
p1961
I0
sS'log_other'
p1962
F5.139450875004868
sS'log_long_term_incentive'
p1963
I0
sg25
I137864
sS'log_bonus'
p1964
I0
sg27
g5
sS'log_deferral_payments'
p1965
I0
sS'total_stock_value'
p1966
S'NaN'
p1967
sg30
I0
sg31
F0.034482758620689655
sg32
I1
sg33
I-2604490
sg34
g5
sS'log_restricted_stock_deferred'
p1968
F7.189105257636261
sS'log_director_fees'
p1969
F5.139450875004868
sg37
I15456290
sS'log_loan_advances'
p1970
I0
sg39
I2604490
sg40
F0.8852772466539197
sg41
F0.0
sS'log_salary'
p1971
I0
ssS'CARTER REBECCA C'
p1972
(dp1973
g3
I312
sg4
g5
sS'log_deferred_income'
p1974
F5.203555032532255
sg7
g5
sS'log_expenses'
p1975
I0
sg9
I00
sg10
I-159792
sg11
S'rebecca.carter@enron.com'
p1976
sg13
I75000
sS'log_total_payments'
p1977
F5.679025215308404
sS'log_restricted_stock'
p1978
F5.4875639735130495
sS'log_exercised_stock_options'
p1979
I0
sg17
I-307301
sg18
I196
sg19
g5
sg20
I15
sg21
I540
sS'log_total_stock_value'
p1980
I0
sS'log_other'
p1981
F2.7323937598229686
sS'log_long_term_incentive'
p1982
F4.875061263391699
sg25
g5
sS'log_bonus'
p1983
F5.477121254719662
sg27
I300000
sS'log_deferral_payments'
p1984
I0
sg29
g5
sg30
I29
sg31
F0.4666666666666667
sg32
I7
sg33
I307301
sg34
I261809
sS'log_restricted_stock_deferred'
p1985
F5.4875639735130495
sS'log_director_fees'
p1986
I0
sg37
I477557
sS'log_loan_advances'
p1987
I0
sg39
g5
sg40
F0.6282051282051282
sg41
F0.09294871794871795
sS'log_salary'
p1988
F5.4179845718677315
ssS'BUCHANAN HAROLD G'
p1989
(dp1990
g3
I1088
sg4
g5
sS'log_deferred_income'
p1991
I0
sg7
I600
sS'log_expenses'
p1992
F2.7781512503836434
sg9
I00
sg10
g5
sg11
S'john.buchanan@enron.com'
p1993
sg13
I304805
sS'log_total_payments'
p1994
F6.023103003686089
sS'log_restricted_stock'
p1995
F5.276556005986421
sS'log_exercised_stock_options'
p1996
F5.9166981376324035
sg17
g5
sg18
I23
sg19
g5
sg20
I125
sg21
I1215
sS'log_total_stock_value'
p1997
F6.006254191800176
sS'log_other'
p1998
F3.084576277934331
sS'log_long_term_incentive'
p1999
F5.484022086862441
sg25
g5
sS'log_bonus'
p2000
F5.698970004336018
sg27
I500000
sS'log_deferral_payments'
p2001
I0
sg29
I1014505
sg30
I0
sg31
F0.0
sg32
I0
sg33
I189041
sg34
I248017
sS'log_restricted_stock_deferred'
p2002
I0
sS'log_director_fees'
p2003
I0
sg37
I1054637
sS'log_loan_advances'
p2004
I0
sg39
I825464
sg40
F0.021139705882352942
sg41
F0.0
sS'log_salary'
p2005
F5.394481449992173
ssS'YEAP SOON'
p2006
(dp2007
g3
g5
sg4
g5
sS'log_deferred_income'
p2008
I0
sg7
I55097
sS'log_expenses'
p2009
F4.7411279524104835
sg9
I00
sg10
g5
sg11
g5
sg13
g5
sS'log_total_payments'
p2010
F4.7411279524104835
sS'log_restricted_stock'
p2011
I0
sS'log_exercised_stock_options'
p2012
F5.2850124115414445
sg17
g5
sg18
g5
sg19
g5
sg20
g5
sg21
g5
sS'log_total_stock_value'
p2013
F5.2850124115414445
sS'log_other'
p2014
I0
sS'log_long_term_incentive'
p2015
I0
sg25
g5
sS'log_bonus'
p2016
I0
sg27
g5
sS'log_deferral_payments'
p2017
I0
sg29
I192758
sg30
g5
sg31
F0.0
sg32
g5
sg33
g5
sg34
g5
sS'log_restricted_stock_deferred'
p2018
I0
sS'log_director_fees'
p2019
I0
sg37
I55097
sS'log_loan_advances'
p2020
I0
sg39
I192758
sg40
F0.0
sg41
F0.0
sS'log_salary'
p2021
I0
ssS'MURRAY JULIA H'
p2022
(dp2023
g3
I2192
sg4
g5
sS'log_deferred_income'
p2024
I0
sg7
I57580
sS'log_expenses'
p2025
F4.760271660542063
sg9
I00
sg10
g5
sg11
S'julia.murray@enron.com'
p2026
sg13
I125000
sS'log_total_payments'
p2027
F5.909659776859858
sS'log_restricted_stock'
p2028
F5.29442874735567
sS'log_exercised_stock_options'
p2029
F5.602578663388966
sg17
g5
sg18
I395
sg19
g5
sg20
I45
sg21
I330
sS'log_total_stock_value'
p2030
F5.776309561440108
sS'log_other'
p2031
F2.518513939877887
sS'log_long_term_incentive'
p2032
F5.096910013008055
sg25
g5
sS'log_bonus'
p2033
F5.602059991327962
sg27
I400000
sS'log_deferral_payments'
p2034
I0
sg29
I597461
sg30
I11
sg31
F0.044444444444444446
sg32
I2
sg33
I196983
sg34
I229284
sS'log_restricted_stock_deferred'
p2035
I0
sS'log_director_fees'
p2036
I0
sg37
I812194
sS'log_loan_advances'
p2037
I0
sg39
I400478
sg40
F0.1802007299270073
sg41
F0.005018248175182482
sS'log_salary'
p2038
F5.360373749652948
ssS'GARLAND C KEVIN'
p2039
(dp2040
g3
I209
sg4
g5
sS'log_deferred_income'
p2041
I0
sg7
I48405
sS'log_expenses'
p2042
F4.684890224459585
sg9
I00
sg10
g5
sg11
S'kevin.garland@enron.com'
p2043
sg13
I375304
sS'log_total_payments'
p2044
F6.194921804731829
sS'log_restricted_stock'
p2045
F5.4148179763861
sS'log_exercised_stock_options'
p2046
F5.803625064997642
sg17
g5
sg18
I178
sg19
g5
sg20
I44
sg21
I60814
sS'log_total_stock_value'
p2047
F5.952382162991547
sS'log_other'
p2048
F4.784003569779971
sS'log_long_term_incentive'
p2049
F5.574383193159871
sg25
g5
sS'log_bonus'
p2050
F5.929418925714292
sg27
I850000
sS'log_deferral_payments'
p2051
I0
sg29
I896153
sg30
I10
sg31
F0.6136363636363636
sg32
I27
sg33
I259907
sg34
I231946
sS'log_restricted_stock_deferred'
p2052
I0
sS'log_director_fees'
p2053
I0
sg37
I1566469
sS'log_loan_advances'
p2054
I0
sg39
I636246
sg40
F0.8516746411483254
sg41
F0.04784688995215311
sS'log_salary'
p2055
F5.365386887340199
ssS'DODSON KEITH'
p2056
(dp2057
g3
I176
sg4
g5
sS'log_deferred_income'
p2058
I0
sg7
I28164
sS'log_expenses'
p2059
F4.449694335646217
sg9
I00
sg10
g5
sg11
S'keith.dodson@enron.com'
p2060
sg13
g5
sS'log_total_payments'
p2061
F5.505069897892163
sS'log_restricted_stock'
p2062
I0
sS'log_exercised_stock_options'
p2063
I0
sg17
g5
sg18
I114
sg19
g5
sg20
I14
sg21
I774
sS'log_total_stock_value'
p2064
I0
sS'log_other'
p2065
F2.888740960682892
sS'log_long_term_incentive'
p2066
I0
sg25
g5
sS'log_bonus'
p2067
F4.845098040014256
sg27
I70000
sS'log_deferral_payments'
p2068
I0
sg29
g5
sg30
I10
sg31
F0.21428571428571427
sg32
I3
sg33
g5
sg34
I221003
sS'log_restricted_stock_deferred'
p2069
I0
sS'log_director_fees'
p2070
I0
sg37
I319941
sS'log_loan_advances'
p2071
I0
sg39
g5
sg40
F0.6477272727272727
sg41
F0.056818181818181816
sS'log_salary'
p2072
F5.344398169045303
ssS'YEAGER F SCOTT'
p2073
(dp2074
g3
g5
sg4
g5
sS'log_deferred_income'
p2075
I0
sg7
I53947
sS'log_expenses'
p2076
F4.731967298515281
sg9
I01
sg10
g5
sg11
S'scott.yeager@enron.com'
p2077
sg13
g5
sS'log_total_payments'
p2078
F5.556664262122569
sS'log_restricted_stock'
p2079
F6.553422527485878
sS'log_exercised_stock_options'
p2080
F6.919525342291355
sg17
g5
sg18
g5
sg19
g5
sg20
g5
sg21
I147950
sS'log_total_stock_value'
p2081
F7.07499034295653
sS'log_other'
p2082
F5.170114969496651
sS'log_long_term_incentive'
p2083
I0
sg25
g5
sS'log_bonus'
p2084
I0
sg27
g5
sS'log_deferral_payments'
p2085
I0
sg29
I11884758
sg30
g5
sg31
F0.0
sg32
g5
sg33
I3576206
sg34
I158403
sS'log_restricted_stock_deferred'
p2086
I0
sS'log_director_fees'
p2087
I0
sg37
I360300
sS'log_loan_advances'
p2088
I0
sg39
I8308552
sg40
F0.0
sg41
F0.0
sS'log_salary'
p2089
F5.199763402449863
ssS'HIRKO JOSEPH'
p2090
(dp2091
g3
g5
sg4
I10259
sS'log_deferred_income'
p2092
I0
sg7
I77978
sS'log_expenses'
p2093
F4.891972092097124
sg9
I01
sg10
g5
sg11
S'joe.hirko@enron.com'
p2094
sg13
g5
sS'log_total_payments'
p2095
F4.959485005094003
sS'log_restricted_stock'
p2096
I0
sS'log_exercised_stock_options'
p2097
F7.488071939132751
sg17
g5
sg18
g5
sg19
g5
sg20
g5
sg21
I2856
sS'log_total_stock_value'
p2098
F7.488071939132751
sS'log_other'
p2099
F3.4557582031041365
sS'log_long_term_incentive'
p2100
I0
sg25
g5
sS'log_bonus'
p2101
I0
sg27
g5
sS'log_deferral_payments'
p2102
F4.01110502981598
sg29
I30766064
sg30
g5
sg31
F0.0
sg32
g5
sg33
g5
sg34
g5
sS'log_restricted_stock_deferred'
p2103
I0
sS'log_director_fees'
p2104
I0
sg37
I91093
sS'log_loan_advances'
p2105
I0
sg39
I30766064
sg40
F0.0
sg41
F0.0
sS'log_salary'
p2106
I0
ssS'DIETRICH JANET R'
p2107
(dp2108
g3
I2572
sg4
g5
sS'log_deferred_income'
p2109
I0
sg7
I3475
sS'log_expenses'
p2110
F3.5409548089261325
sg9
I00
sg10
g5
sg11
S'janet.dietrich@enron.com'
p2111
sg13
I556416
sS'log_total_payments'
p2112
F6.14936200591083
sS'log_restricted_stock'
p2113
F5.498404296131328
sS'log_exercised_stock_options'
p2114
F6.190337021747441
sg17
g5
sg18
I1902
sg19
g5
sg20
I63
sg21
I473
sS'log_total_stock_value'
p2115
F6.270699094985817
sS'log_other'
p2116
F2.674861140737811
sS'log_long_term_incentive'
p2117
F5.745399609838705
sg25
g5
sS'log_bonus'
p2118
F5.778151250383643
sg27
I600000
sS'log_deferral_payments'
p2119
I0
sg29
I1865087
sg30
I305
sg31
F0.2222222222222222
sg32
I14
sg33
I315068
sg34
I250100
sS'log_restricted_stock_deferred'
p2120
I0
sS'log_director_fees'
p2121
I0
sg37
I1410464
sS'log_loan_advances'
p2122
I0
sg39
I1550019
sg40
F0.73950233281493
sg41
F0.11858475894245724
sS'log_salary'
p2123
F5.398113691730503
ssS'DERRICK JR. JAMES V'
p2124
(dp2125
g3
I2181
sg4
g5
sS'log_deferred_income'
p2126
F6.108565023732834
sg7
I51124
sS'log_expenses'
p2127
F4.708624826174726
sg9
I00
sg10
I-1284000
sg11
S'james.derrick@enron.com'
p2128
sg13
I484000
sS'log_total_payments'
p2129
F5.741136622921788
sS'log_restricted_stock'
p2130
F6.2522168940606795
sS'log_exercised_stock_options'
p2131
F6.9460547823273755
sg17
I-1787380
sg18
I1401
sg19
g5
sg20
I909
sg21
I7482
sS'log_total_stock_value'
p2132
F6.9460547823273755
sS'log_other'
p2133
F3.8740177038621857
sS'log_long_term_incentive'
p2134
F5.684845361644412
sg25
g5
sS'log_bonus'
p2135
F5.903089986991943
sg27
I800000
sS'log_deferral_payments'
p2136
I0
sg29
I8831913
sg30
I64
sg31
F0.022002200220022004
sg32
I20
sg33
I1787380
sg34
I492375
sS'log_restricted_stock_deferred'
p2137
F6.2522168940606795
sS'log_director_fees'
p2138
I0
sg37
I550981
sS'log_loan_advances'
p2139
I0
sg39
I8831913
sg40
F0.6423658872077029
sg41
F0.029344337459880788
sS'log_salary'
p2140
F5.692295993817197
ssS'FREVERT MARK A'
p2141
(dp2142
g3
I3275
sg4
I6426990
sS'log_deferred_income'
p2143
F6.527244535227261
sg7
I86987
sS'log_expenses'
p2144
F4.939454353191934
sg9
I00
sg10
I-3367011
sg11
S'mark.frevert@enron.com'
p2145
sg13
I1617011
sS'log_total_payments'
p2146
F7.236852791262683
sS'log_restricted_stock'
p2147
F6.622075835221333
sS'log_exercised_stock_options'
p2148
F7.018430769632336
sg17
g5
sg18
I2979
sg19
I2000000
sg20
I21
sg21
I7427621
sS'log_total_stock_value'
p2149
F7.165012274300339
sS'log_other'
p2150
F6.870849735427472
sS'log_long_term_incentive'
p2151
F6.208712974280582
sg25
g5
sS'log_bonus'
p2152
F6.30102999566398
sg27
I2000000
sS'log_deferral_payments'
p2153
F6.8080076241755
sg29
I14622185
sg30
I242
sg31
F0.2857142857142857
sg32
I6
sg33
I4188667
sg34
I1060932
sS'log_restricted_stock_deferred'
p2154
I0
sS'log_director_fees'
p2155
I0
sg37
I17252530
sS'log_loan_advances'
p2156
F6.30102999566398
sg39
I10433518
sg40
F0.909618320610687
sg41
F0.07389312977099237
sS'log_salary'
p2157
F6.025687548867249
ssS'PAI LOU L'
p2158
(dp2159
g3
g5
sg4
g5
sS'log_deferred_income'
p2160
I0
sg7
I32047
sS'log_expenses'
p2161
F4.505787380362577
sg9
I00
sg10
g5
sg11
S'lou.pai@enron.com'
p2162
sg13
g5
sS'log_total_payments'
p2163
F6.494625242183409
sS'log_restricted_stock'
p2164
F6.927050068281859
sS'log_exercised_stock_options'
p2165
F7.1865090190596765
sg17
g5
sg18
g5
sg19
g5
sg20
g5
sg21
I1829457
sS'log_total_stock_value'
p2166
F7.376904014550549
sS'log_other'
p2167
F6.262322206179998
sS'log_long_term_incentive'
p2168
I0
sg25
g5
sS'log_bonus'
p2169
F5.999999999999999
sg27
I1000000
sS'log_deferral_payments'
p2170
I0
sg29
I23817930
sg30
g5
sg31
F0.0
sg32
g5
sg33
I8453763
sg34
I261879
sS'log_restricted_stock_deferred'
p2171
I0
sS'log_director_fees'
p2172
I0
sg37
I3123383
sS'log_loan_advances'
p2173
I0
sg39
I15364167
sg40
F0.0
sg41
F0.0
sS'log_salary'
p2174
F5.418100673874706
ssS'BAY FRANKLIN R'
p2175
(dp2176
g3
g5
sg4
I260455
sS'log_deferred_income'
p2177
F5.30457884257193
sg7
I129142
sS'log_expenses'
p2178
F5.111067507966041
sg9
I00
sg10
I-201641
sg11
S'frank.bay@enron.com'
p2179
sg13
g5
sS'log_total_payments'
p2180
F5.917870856392366
sS'log_restricted_stock'
p2181
F5.163745609017911
sS'log_exercised_stock_options'
p2182
I0
sg17
I-82782
sg18
g5
sg19
g5
sg20
g5
sg21
I69
sS'log_total_stock_value'
p2183
F4.799437048616716
sS'log_other'
p2184
F1.8388490907372552
sS'log_long_term_incentive'
p2185
I0
sg25
g5
sS'log_bonus'
p2186
F5.602059991327962
sg27
I400000
sS'log_deferral_payments'
p2187
F5.415732699075555
sg29
I63014
sg30
g5
sg31
F0.0
sg32
g5
sg33
I145796
sg34
I239671
sS'log_restricted_stock_deferred'
p2188
F4.917935914677343
sS'log_director_fees'
p2189
I0
sg37
I827696
sS'log_loan_advances'
p2190
I0
sg39
g5
sg40
F0.0
sg41
F0.0
sS'log_salary'
p2191
F5.379615487926398
ssS'HAYSLETT RODERICK J'
p2192
(dp2193
g3
I2649
sg4
g5
sS'log_deferred_income'
p2194
I0
sg7
g5
sS'log_expenses'
p2195
I0
sg9
I00
sg10
g5
sg11
S'rod.hayslett@enron.com'
p2196
sg13
g5
sS'log_total_payments'
p2197
I0
sS'log_restricted_stock'
p2198
F5.539907491055497
sS'log_exercised_stock_options'
p2199
I0
sg17
g5
sg18
I571
sg19
g5
sg20
I1061
sg21
g5
sS'log_total_stock_value'
p2200
F5.539907491055497
sS'log_other'
p2201
I0
sS'log_long_term_incentive'
p2202
I0
sg25
g5
sS'log_bonus'
p2203
I0
sg27
g5
sS'log_deferral_payments'
p2204
I0
sg29
I346663
sg30
I35
sg31
F0.03581526861451461
sg32
I38
sg33
I346663
sg34
g5
sS'log_restricted_stock_deferred'
p2205
I0
sS'log_director_fees'
p2206
I0
sg37
g5
sS'log_loan_advances'
p2207
I0
sg39
g5
sg40
F0.21555303888259722
sg41
F0.01321253303133258
sS'log_salary'
p2208
I0
ssS'FUGH JOHN L'
p2209
(dp2210
g3
g5
sg4
I50591
sS'log_deferred_income'
p2211
I0
sg7
g5
sS'log_expenses'
p2212
I0
sg9
I00
sg10
g5
sg11
g5
sg13
g5
sS'log_total_payments'
p2213
F4.704073263915182
sS'log_restricted_stock'
p2214
I0
sS'log_exercised_stock_options'
p2215
F5.246444413707069
sg17
g5
sg18
g5
sg19
g5
sg20
g5
sg21
g5
sS'log_total_stock_value'
p2216
F5.246444413707069
sS'log_other'
p2217
I0
sS'log_long_term_incentive'
p2218
I0
sg25
g5
sS'log_bonus'
p2219
I0
sg27
g5
sS'log_deferral_payments'
p2220
F4.704073263915182
sg29
I176378
sg30
g5
sg31
F0.0
sg32
g5
sg33
g5
sg34
g5
sS'log_restricted_stock_deferred'
p2221
I0
sS'log_director_fees'
p2222
I0
sg37
I50591
sS'log_loan_advances'
p2223
I0
sg39
I176378
sg40
F0.0
sg41
F0.0
sS'log_salary'
p2224
I0
ssS'FALLON JAMES B'
p2225
(dp2226
g3
I1755
sg4
g5
sS'log_deferred_income'
p2227
I0
sg7
I95924
sS'log_expenses'
p2228
F4.981927280408841
sg9
I00
sg10
g5
sg11
S'jim.fallon@enron.com'
p2229
sg13
I374347
sS'log_total_payments'
p2230
F6.565415669551829
sS'log_restricted_stock'
p2231
F6.1436835360440325
sS'log_exercised_stock_options'
p2232
F5.9732465753303385
sg17
g5
sg18
I1604
sg19
g5
sg20
I75
sg21
I401481
sS'log_total_stock_value'
p2233
F6.36780284654828
sS'log_other'
p2234
F5.603664997210203
sS'log_long_term_incentive'
p2235
F5.573274357061583
sg25
g5
sS'log_bonus'
p2236
F6.3979400086720375
sg27
I2500000
sS'log_deferral_payments'
p2237
I0
sg29
I2332399
sg30
I42
sg31
F0.49333333333333335
sg32
I37
sg33
I1392142
sg34
I304588
sS'log_restricted_stock_deferred'
p2238
I0
sS'log_director_fees'
p2239
I0
sg37
I3676340
sS'log_loan_advances'
p2240
I0
sg39
I940257
sg40
F0.913960113960114
sg41
F0.023931623931623933
sS'log_salary'
p2241
F5.483712789228382
ssS'KOENIG MARK E'
p2242
(dp2243
g3
I2374
sg4
g5
sS'log_deferred_income'
p2244
I0
sg7
I127017
sS'log_expenses'
p2245
F5.1038618509724785
sg9
I01
sg10
g5
sg11
S'mark.koenig@enron.com'
p2246
sg13
I300000
sS'log_total_payments'
p2247
F6.200692121291397
sS'log_restricted_stock'
p2248
F6.096325232824805
sS'log_exercised_stock_options'
p2249
F5.827199270366991
sg17
g5
sg18
I2271
sg19
g5
sg20
I61
sg21
I150458
sS'log_total_stock_value'
p2250
F6.283313669252712
sS'log_other'
p2251
F5.177415284555236
sS'log_long_term_incentive'
p2252
F5.477121254719662
sg25
g5
sS'log_bonus'
p2253
F5.845098040014256
sg27
I700000
sS'log_deferral_payments'
p2254
I0
sg29
I1920055
sg30
I53
sg31
F0.2459016393442623
sg32
I15
sg33
I1248318
sg34
I309946
sS'log_restricted_stock_deferred'
p2255
I0
sS'log_director_fees'
p2256
I0
sg37
I1587421
sS'log_loan_advances'
p2257
I0
sg39
I671737
sg40
F0.9566133108677338
sg41
F0.02232518955349621
sS'log_salary'
p2258
F5.491286035947676
ssS'SAVAGE FRANK'
p2259
(dp2260
g3
g5
sg4
g5
sS'log_deferred_income'
p2261
F5.083803511748408
sg7
g5
sS'log_expenses'
p2262
I0
sg9
I00
sg10
I-121284
sg11
g5
sg13
g5
sS'log_total_payments'
p2263
F3.5740312677277184
sS'log_restricted_stock'
p2264
I0
sS'log_exercised_stock_options'
p2265
I0
sg17
g5
sg18
g5
sg19
g5
sg20
g5
sg21
g5
sS'log_total_stock_value'
p2266
I0
sS'log_other'
p2267
I0
sS'log_long_term_incentive'
p2268
I0
sg25
I125034
sS'log_bonus'
p2269
I0
sg27
g5
sS'log_deferral_payments'
p2270
I0
sg29
g5
sg30
g5
sg31
F0.0
sg32
g5
sg33
g5
sg34
g5
sS'log_restricted_stock_deferred'
p2271
I0
sS'log_director_fees'
p2272
F5.097028125044625
sg37
I3750
sS'log_loan_advances'
p2273
I0
sg39
g5
sg40
F0.0
sg41
F0.0
sS'log_salary'
p2274
I0
ssS'IZZO LAWRENCE L'
p2275
(dp2276
g3
I496
sg4
g5
sS'log_deferred_income'
p2277
I0
sg7
I28093
sS'log_expenses'
p2278
F4.448598119190078
sg9
I00
sg10
g5
sg11
S'larry.izzo@enron.com'
p2279
sg13
I312500
sS'log_total_payments'
p2280
F6.296576567598361
sS'log_restricted_stock'
p2281
F6.562864566866867
sS'log_exercised_stock_options'
p2282
F6.335492402159962
sg17
g5
sg18
I437
sg19
g5
sg20
I19
sg21
I1553729
sS'log_total_stock_value'
p2283
F6.764921492226423
sS'log_other'
p2284
F6.1913752718213795
sS'log_long_term_incentive'
p2285
F5.494850021680094
sg25
g5
sS'log_bonus'
p2286
I0
sg27
g5
sS'log_deferral_payments'
p2287
I0
sg29
I5819980
sg30
I28
sg31
F0.2631578947368421
sg32
I5
sg33
I3654808
sg34
I85274
sS'log_restricted_stock_deferred'
p2288
I0
sS'log_director_fees'
p2289
I0
sg37
I1979596
sS'log_loan_advances'
p2290
I0
sg39
I2165172
sg40
F0.8810483870967742
sg41
F0.056451612903225805
sS'log_salary'
p2291
F4.930816635179659
ssS'TILNEY ELIZABETH A'
p2292
(dp2293
g3
I460
sg4
g5
sS'log_deferred_income'
p2294
F5.75966784468963
sg7
g5
sS'log_expenses'
p2295
I0
sg9
I00
sg10
I-575000
sg11
S'elizabeth.tilney@enron.com'
p2296
sg13
I275000
sS'log_total_payments'
p2297
F5.601400448897192
sS'log_restricted_stock'
p2298
F5.76101922816777
sS'log_exercised_stock_options'
p2299
F5.771771153745868
sg17
g5
sg18
I379
sg19
g5
sg20
I19
sg21
I152055
sS'log_total_stock_value'
p2300
F6.067458459249236
sS'log_other'
p2301
F5.18200070555024
sS'log_long_term_incentive'
p2302
F5.439332693830262
sg25
g5
sS'log_bonus'
p2303
F5.477121254719662
sg27
I300000
sS'log_deferral_payments'
p2304
I0
sg29
I1168042
sg30
I10
sg31
F0.5789473684210527
sg32
I11
sg33
I576792
sg34
I247338
sS'log_restricted_stock_deferred'
p2305
I0
sS'log_director_fees'
p2306
I0
sg37
I399393
sS'log_loan_advances'
p2307
I0
sg39
I591250
sg40
F0.8239130434782609
sg41
F0.021739130434782608
sS'log_salary'
p2308
F5.393290844717568
ssS'MARTIN AMANDA K'
p2309
(dp2310
g3
I1522
sg4
I85430
sS'log_deferred_income'
p2311
I0
sg7
I8211
sS'log_expenses'
p2312
F3.914396052129786
sg9
I00
sg10
g5
sg11
S'a..martin@enron.com'
p2313
sg13
I5145434
sS'log_total_payments'
p2314
F6.924641873955178
sS'log_restricted_stock'
p2315
I0
sS'log_exercised_stock_options'
p2316
F6.31603454076601
sg17
g5
sg18
I477
sg19
g5
sg20
I230
sg21
I2818454
sS'log_total_stock_value'
p2317
F6.31603454076601
sS'log_other'
p2318
F6.45001095109192
sS'log_long_term_incentive'
p2319
F6.7114220119178745
sg25
g5
sS'log_bonus'
p2320
I0
sg27
g5
sS'log_deferral_payments'
p2321
F4.931610406362962
sg29
I2070306
sg30
I8
sg31
F0.0
sg32
I0
sg33
g5
sg34
I349487
sS'log_restricted_stock_deferred'
p2322
I0
sS'log_director_fees'
p2323
I0
sg37
I8407016
sS'log_loan_advances'
p2324
I0
sg39
I2070306
sg40
F0.31340341655716164
sg41
F0.005256241787122208
sS'log_salary'
p2325
F5.543431025766196
ssS'BUY RICHARD B'
p2326
(dp2327
g3
I3523
sg4
I649584
sS'log_deferred_income'
p2328
F5.841898562015383
sg7
g5
sS'log_expenses'
p2329
I0
sg9
I00
sg10
I-694862
sg11
S'rick.buy@enron.com'
p2330
sg13
I769862
sS'log_total_payments'
p2331
F6.372120350656165
sS'log_restricted_stock'
p2332
F5.955041358675794
sS'log_exercised_stock_options'
p2333
F6.40531442307218
sg17
g5
sg18
I2333
sg19
g5
sg20
I1053
sg21
I400572
sS'log_total_stock_value'
p2334
F6.5371224065678595
sS'log_other'
p2335
F5.602680588815559
sS'log_long_term_incentive'
p2336
F5.886412883601402
sg25
g5
sS'log_bonus'
p2337
F5.954242509439324
sg27
I900000
sS'log_deferral_payments'
p2338
F5.812635319192959
sg29
I3444470
sg30
I156
sg31
F0.06742640075973409
sg32
I71
sg33
I901657
sg34
I330546
sS'log_restricted_stock_deferred'
p2339
I0
sS'log_director_fees'
p2340
I0
sg37
I2355702
sS'log_loan_advances'
p2341
I0
sg39
I2542813
sg40
F0.6622196991200682
sg41
F0.04428044280442804
sS'log_salary'
p2342
F5.519231906048674
ssS'GRAMM WENDY L'
p2343
(dp2344
g3
g5
sg4
g5
sS'log_deferred_income'
p2345
I0
sg7
g5
sS'log_expenses'
p2346
I0
sg9
I00
sg10
g5
sg11
g5
sg13
g5
sS'log_total_payments'
p2347
F5.076611319845096
sS'log_restricted_stock'
p2348
I0
sS'log_exercised_stock_options'
p2349
I0
sg17
g5
sg18
g5
sg19
g5
sg20
g5
sg21
g5
sS'log_total_stock_value'
p2350
I0
sS'log_other'
p2351
I0
sS'log_long_term_incentive'
p2352
I0
sg25
I119292
sS'log_bonus'
p2353
I0
sg27
g5
sS'log_deferral_payments'
p2354
I0
sg29
g5
sg30
g5
sg31
F0.0
sg32
g5
sg33
g5
sg34
g5
sS'log_restricted_stock_deferred'
p2355
I0
sS'log_director_fees'
p2356
F5.076611319845096
sg37
I119292
sS'log_loan_advances'
p2357
I0
sg39
g5
sg40
F0.0
sg41
F0.0
sS'log_salary'
p2358
I0
ssS'CAUSEY RICHARD A'
p2359
(dp2360
g3
I1892
sg4
g5
sS'log_deferred_income'
p2361
F5.371067862271736
sg7
I30674
sS'log_expenses'
p2362
F4.4867704132389425
sg9
I01
sg10
I-235000
sg11
S'richard.causey@enron.com'
p2363
sg13
I350000
sS'log_total_payments'
p2364
F6.271553064851605
sS'log_restricted_stock'
p2365
F6.398298240692292
sS'log_exercised_stock_options'
p2366
I0
sg17
g5
sg18
I1585
sg19
g5
sg20
I49
sg21
I307895
sS'log_total_stock_value'
p2367
F6.398298240692292
sS'log_other'
p2368
F5.488402636321057
sS'log_long_term_incentive'
p2369
F5.544068044350275
sg25
g5
sS'log_bonus'
p2370
F5.999999999999999
sg27
I1000000
sS'log_deferral_payments'
p2371
I0
sg29
I2502063
sg30
I58
sg31
F0.24489795918367346
sg32
I12
sg33
I2502063
sg34
I415189
sS'log_restricted_stock_deferred'
p2372
I0
sS'log_director_fees'
p2373
I0
sg37
I1868758
sS'log_loan_advances'
p2374
I0
sg39
g5
sg40
F0.837737843551797
sg41
F0.0306553911205074
sS'log_salary'
p2375
F5.618245838812982
ssS'TAYLOR MITCHELL S'
p2376
(dp2377
g3
I533
sg4
I227449
sS'log_deferred_income'
p2378
I0
sg7
g5
sS'log_expenses'
p2379
I0
sg9
I00
sg10
g5
sg11
S'mitchell.taylor@enron.com'
p2380
sg13
g5
sS'log_total_payments'
p2381
F6.038486237148339
sS'log_restricted_stock'
p2382
F5.751123530935185
sS'log_exercised_stock_options'
p2383
F6.502597799680833
sg17
g5
sg18
I300
sg19
g5
sg20
I29
sg21
g5
sS'log_total_stock_value'
p2384
F6.573457388391036
sS'log_other'
p2385
I0
sS'log_long_term_incentive'
p2386
I0
sg25
g5
sS'log_bonus'
p2387
F5.778151250383643
sg27
I600000
sS'log_deferral_payments'
p2388
F5.356884031755393
sg29
I3745048
sg30
I0
sg31
F0.0
sg32
I0
sg33
I563798
sg34
I265214
sS'log_restricted_stock_deferred'
p2389
I0
sS'log_director_fees'
p2390
I0
sg37
I1092663
sS'log_loan_advances'
p2391
I0
sg39
I3181250
sg40
F0.5628517823639775
sg41
F0.0
sS'log_salary'
p2392
F5.423596445683966
ssS'DONAHUE JR JEFFREY M'
p2393
(dp2394
g3
I865
sg4
g5
sS'log_deferred_income'
p2395
F5.477121254719662
sg7
I96268
sS'log_expenses'
p2396
F4.983481949295312
sg9
I00
sg10
I-300000
sg11
S'jeff.donahue@enron.com'
p2397
sg13
g5
sS'log_total_payments'
p2398
F5.942385105076253
sS'log_restricted_stock'
p2399
F5.498404296131328
sS'log_exercised_stock_options'
p2400
F5.884183410137873
sg17
g5
sg18
I772
sg19
g5
sg20
I22
sg21
I891
sS'log_total_stock_value'
p2401
F6.033820872896225
sS'log_other'
p2402
F2.9498777040368744
sS'log_long_term_incentive'
p2403
I0
sg25
g5
sS'log_bonus'
p2404
F5.903089986991943
sg27
I800000
sS'log_deferral_payments'
p2405
I0
sg29
I1080988
sg30
I188
sg31
F0.5
sg32
I11
sg33
I315068
sg34
I278601
sS'log_restricted_stock_deferred'
p2406
I0
sS'log_director_fees'
p2407
I0
sg37
I875760
sS'log_loan_advances'
p2408
I0
sg39
I765920
sg40
F0.892485549132948
sg41
F0.21734104046242775
sS'log_salary'
p2409
F5.444982670931098
ssS'GLISAN JR BEN F'
p2410
(dp2411
g3
I873
sg4
g5
sS'log_deferred_income'
p2412
I0
sg7
I125978
sS'log_expenses'
p2413
F5.100294709301529
sg9
I01
sg10
g5
sg11
S'ben.glisan@enron.com'
p2414
sg13
I71023
sS'log_total_payments'
p2415
F6.1045840656094565
sS'log_restricted_stock'
p2416
F5.59529556228971
sS'log_exercised_stock_options'
p2417
F5.585153794840683
sg17
g5
sg18
I874
sg19
g5
sg20
I16
sg21
I200308
sS'log_total_stock_value'
p2418
F5.891284277733907
sS'log_other'
p2419
F5.301698294707825
sS'log_long_term_incentive'
p2420
F4.851399012881514
sg25
g5
sS'log_bonus'
p2421
F5.778151250383643
sg27
I600000
sS'log_deferral_payments'
p2422
I0
sg29
I778546
sg30
I52
sg31
F0.375
sg32
I6
sg33
I393818
sg34
I274975
sS'log_restricted_stock_deferred'
p2423
I0
sS'log_director_fees'
p2424
I0
sg37
I1272284
sS'log_loan_advances'
p2425
I0
sg39
I384728
sg40
F1.0011454753722795
sg41
F0.05956471935853379
sS'log_salary'
p2426
F5.439293210719011
ss.