(lp0
S'poi'
p1
aS'to_messages'
p2
aS'deferral_payments'
p3
aS'log_deferred_income'
p4
aS'expenses'
p5
aS'log_expenses'
p6
aS'deferred_income'
p7
aS'long_term_incentive'
p8
aS'log_total_payments'
p9
aS'log_restricted_stock'
p10
aS'log_exercised_stock_options'
p11
aS'restricted_stock_deferred'
p12
aS'shared_receipt_with_poi'
p13
aS'loan_advances'
p14
aS'from_messages'
p15
aS'other'
p16
aS'log_total_stock_value'
p17
aS'log_other'
p18
aS'log_long_term_incentive'
p19
aS'director_fees'
p20
aS'log_bonus'
p21
aS'bonus'
p22
aS'log_deferral_payments'
p23
aS'total_stock_value'
p24
aS'from_poi_to_this_person'
p25
aS'ratio_to_poi'
p26
aS'from_this_person_to_poi'
p27
aS'restricted_stock'
p28
aS'salary'
p29
aS'log_restricted_stock_deferred'
p30
aS'total_payments'
p31
aS'log_director_fees'
p32
aS'log_loan_advances'
p33
aS'exercised_stock_options'
p34
aS'ratio_shared_receipt'
p35
aS'ratio_from_poi'
p36
aS'log_salary'
p37
a.